# command-line-arguments
"".approx STEXT size=904 args=0x8 locals=0x30
	0x0000 00000 (/Users/fpf/Downloads/go1.11.1/test/codegen/math.go:13)	TEXT	"".approx(SB), $48-8
	0x0000 00000 (/Users/fpf/Downloads/go1.11.1/test/codegen/math.go:13)	MOVW	8(g), R1
	0x0004 00004 (/Users/fpf/Downloads/go1.11.1/test/codegen/math.go:13)	SGTU	R29, R1, R1
	0x0008 00008 (/Users/fpf/Downloads/go1.11.1/test/codegen/math.go:13)	BNE	R1, 36
	0x000c 00012 (/Users/fpf/Downloads/go1.11.1/test/codegen/math.go:13)	NOOP
	0x0010 00016 (/Users/fpf/Downloads/go1.11.1/test/codegen/math.go:13)	MOVW	R31, R3
	0x0014 00020 (/Users/fpf/Downloads/go1.11.1/test/codegen/math.go:13)	PCDATA	$0, $-1
	0x0014 00020 (/Users/fpf/Downloads/go1.11.1/test/codegen/math.go:13)	PCDATA	$2, $-1
	0x0014 00020 (/Users/fpf/Downloads/go1.11.1/test/codegen/math.go:13)	CALL	runtime.morestack_noctxt(SB)
	0x0018 00024 (/Users/fpf/Downloads/go1.11.1/test/codegen/math.go:13)	NOOP
	0x001c 00028 (/Users/fpf/Downloads/go1.11.1/test/codegen/math.go:13)	JMP	0
	0x0020 00032 (/Users/fpf/Downloads/go1.11.1/test/codegen/math.go:13)	NOOP
	0x0024 00036 (/Users/fpf/Downloads/go1.11.1/test/codegen/math.go:13)	NOP
	0x0024 00036 (/Users/fpf/Downloads/go1.11.1/test/codegen/math.go:13)	MOVW	R31, -52(R29)
	0x0028 00040 (/Users/fpf/Downloads/go1.11.1/test/codegen/math.go:13)	ADDU	$-52, R29
	0x002c 00044 (/Users/fpf/Downloads/go1.11.1/test/codegen/math.go:13)	FUNCDATA	$0, gclocals·2002e13acf59079a1a5782c918894579(SB)
	0x002c 00044 (/Users/fpf/Downloads/go1.11.1/test/codegen/math.go:13)	FUNCDATA	$1, gclocals·2002e13acf59079a1a5782c918894579(SB)
	0x002c 00044 (/Users/fpf/Downloads/go1.11.1/test/codegen/math.go:13)	FUNCDATA	$3, gclocals·2002e13acf59079a1a5782c918894579(SB)
	0x002c 00044 (/Users/fpf/Downloads/go1.11.1/test/codegen/math.go:17)	PCDATA	$2, $0
	0x002c 00044 (/Users/fpf/Downloads/go1.11.1/test/codegen/math.go:17)	PCDATA	$0, $0
	0x002c 00044 (/Users/fpf/Downloads/go1.11.1/test/codegen/math.go:17)	MOVF	"".x+4(FP), F0
	0x0030 00048 (/Users/fpf/Downloads/go1.11.1/test/codegen/math.go:17)	MOVF	"".x(FP), F1
	0x0034 00052 (/Users/fpf/Downloads/go1.11.1/test/codegen/math.go:17)	MOVF	F0, 8(R29)
	0x0038 00056 (/Users/fpf/Downloads/go1.11.1/test/codegen/math.go:17)	MOVF	F1, 4(R29)
	0x003c 00060 (/Users/fpf/Downloads/go1.11.1/test/codegen/math.go:17)	CALL	math.Ceil(SB)
	0x0040 00064 (/Users/fpf/Downloads/go1.11.1/test/codegen/math.go:17)	NOOP
	0x0044 00068 (/Users/fpf/Downloads/go1.11.1/test/codegen/math.go:17)	MOVF	16(R29), F0
	0x0048 00072 (/Users/fpf/Downloads/go1.11.1/test/codegen/math.go:17)	MOVF	12(R29), F1
	0x004c 00076 (/Users/fpf/Downloads/go1.11.1/test/codegen/math.go:17)	MOVF	F0, "".sink64+4(SB)
	0x0054 00084 (/Users/fpf/Downloads/go1.11.1/test/codegen/math.go:17)	MOVF	F1, "".sink64(SB)
	0x005c 00092 (/Users/fpf/Downloads/go1.11.1/test/codegen/math.go:22)	MOVF	"".x+4(FP), F0
	0x0060 00096 (/Users/fpf/Downloads/go1.11.1/test/codegen/math.go:22)	MOVF	"".x(FP), F1
	0x0064 00100 (/Users/fpf/Downloads/go1.11.1/test/codegen/math.go:22)	MOVF	F0, 8(R29)
	0x0068 00104 (/Users/fpf/Downloads/go1.11.1/test/codegen/math.go:22)	MOVF	F1, 4(R29)
	0x006c 00108 (/Users/fpf/Downloads/go1.11.1/test/codegen/math.go:22)	CALL	math.Floor(SB)
	0x0070 00112 (/Users/fpf/Downloads/go1.11.1/test/codegen/math.go:22)	NOOP
	0x0074 00116 (/Users/fpf/Downloads/go1.11.1/test/codegen/math.go:22)	MOVF	16(R29), F0
	0x0078 00120 (/Users/fpf/Downloads/go1.11.1/test/codegen/math.go:22)	MOVF	12(R29), F1
	0x007c 00124 (/Users/fpf/Downloads/go1.11.1/test/codegen/math.go:22)	MOVF	F0, "".sink64+12(SB)
	0x0084 00132 (/Users/fpf/Downloads/go1.11.1/test/codegen/math.go:22)	MOVF	F1, "".sink64+8(SB)
	0x008c 00140 (/Users/fpf/Downloads/go1.11.1/test/codegen/math.go:27)	MOVF	"".x+4(FP), F0
	0x0090 00144 (/Users/fpf/Downloads/go1.11.1/test/codegen/math.go:27)	MOVF	"".x(FP), F1
	0x0094 00148 (/Users/fpf/Downloads/go1.11.1/test/codegen/math.go:27)	MOVF	F0, math.f-20(SP)
	0x0098 00152 (/Users/fpf/Downloads/go1.11.1/test/codegen/math.go:27)	MOVF	F1, math.f-24(SP)
	0x009c 00156 (/Users/fpf/Downloads/go1.11.1/test/codegen/math.go:27)	MOVW	math.f-24(SP), R1
	0x00a0 00160 (/Users/fpf/Downloads/go1.11.1/test/codegen/math.go:27)	SRL	$20, R1, R2
	0x00a4 00164 (/Users/fpf/Downloads/go1.11.1/test/codegen/math.go:27)	AND	$2047, R2, R2
	0x00a8 00168 (/Users/fpf/Downloads/go1.11.1/test/codegen/math.go:27)	MOVW	math.f-20(SP), R3
	0x00ac 00172 (/Users/fpf/Downloads/go1.11.1/test/codegen/math.go:27)	SGTU	$1023, R2, R4
	0x00b0 00176 (/Users/fpf/Downloads/go1.11.1/test/codegen/math.go:27)	BEQ	R4, 716
	0x00b4 00180 (/Users/fpf/Downloads/go1.11.1/test/codegen/math.go:27)	NOOP
	0x00b8 00184 (/Users/fpf/Downloads/go1.11.1/test/codegen/math.go:27)	SRL	$31, R1, R1
	0x00bc 00188 (/Users/fpf/Downloads/go1.11.1/test/codegen/math.go:27)	SLL	$31, R1, R1
	0x00c0 00192 (/Users/fpf/Downloads/go1.11.1/test/codegen/math.go:27)	XOR	$1022, R2, R2
	0x00c4 00196 (/Users/fpf/Downloads/go1.11.1/test/codegen/math.go:27)	BNE	R2, 212
	0x00c8 00200 (/Users/fpf/Downloads/go1.11.1/test/codegen/math.go:27)	NOOP
	0x00cc 00204 (/Users/fpf/Downloads/go1.11.1/test/codegen/math.go:27)	OR	$1072693248, R1, R1
	0x00d4 00212 (/Users/fpf/Downloads/go1.11.1/test/codegen/math.go:27)	MOVW	$0, R2
	0x00d8 00216 (/Users/fpf/Downloads/go1.11.1/test/codegen/math.go:27)	MOVW	R1, math.b-8(SP)
	0x00dc 00220 (/Users/fpf/Downloads/go1.11.1/test/codegen/math.go:27)	MOVW	R2, math.b-4(SP)
	0x00e0 00224 (/Users/fpf/Downloads/go1.11.1/test/codegen/math.go:27)	MOVF	math.b-4(SP), F2
	0x00e4 00228 (/Users/fpf/Downloads/go1.11.1/test/codegen/math.go:27)	MOVF	math.b-8(SP), F3
	0x00e8 00232 (/Users/fpf/Downloads/go1.11.1/test/codegen/math.go:27)	MOVF	F2, "".sink64+20(SB)
	0x00f0 00240 (/Users/fpf/Downloads/go1.11.1/test/codegen/math.go:27)	MOVF	F3, "".sink64+16(SB)
	0x00f8 00248 (/Users/fpf/Downloads/go1.11.1/test/codegen/math.go:32)	MOVF	F0, 8(R29)
	0x00fc 00252 (/Users/fpf/Downloads/go1.11.1/test/codegen/math.go:32)	MOVF	F1, 4(R29)
	0x0100 00256 (/Users/fpf/Downloads/go1.11.1/test/codegen/math.go:32)	CALL	math.Trunc(SB)
	0x0104 00260 (/Users/fpf/Downloads/go1.11.1/test/codegen/math.go:32)	NOOP
	0x0108 00264 (/Users/fpf/Downloads/go1.11.1/test/codegen/math.go:32)	MOVF	16(R29), F0
	0x010c 00268 (/Users/fpf/Downloads/go1.11.1/test/codegen/math.go:32)	MOVF	12(R29), F1
	0x0110 00272 (/Users/fpf/Downloads/go1.11.1/test/codegen/math.go:32)	MOVF	F0, "".sink64+28(SB)
	0x0118 00280 (/Users/fpf/Downloads/go1.11.1/test/codegen/math.go:32)	MOVF	F1, "".sink64+24(SB)
	0x0120 00288 (/Users/fpf/Downloads/go1.11.1/test/codegen/math.go:35)	MOVF	"".x+4(FP), F0
	0x0124 00292 (/Users/fpf/Downloads/go1.11.1/test/codegen/math.go:35)	MOVF	"".x(FP), F1
	0x0128 00296 (/Users/fpf/Downloads/go1.11.1/test/codegen/math.go:35)	MOVF	F0, math.f-28(SP)
	0x012c 00300 (/Users/fpf/Downloads/go1.11.1/test/codegen/math.go:35)	MOVF	F1, math.f-32(SP)
	0x0130 00304 (/Users/fpf/Downloads/go1.11.1/test/codegen/math.go:35)	MOVW	math.f-32(SP), R1
	0x0134 00308 (/Users/fpf/Downloads/go1.11.1/test/codegen/math.go:35)	SRL	$20, R1, R2
	0x0138 00312 (/Users/fpf/Downloads/go1.11.1/test/codegen/math.go:35)	AND	$2047, R2, R2
	0x013c 00316 (/Users/fpf/Downloads/go1.11.1/test/codegen/math.go:35)	MOVW	math.f-28(SP), R3
	0x0140 00320 (/Users/fpf/Downloads/go1.11.1/test/codegen/math.go:35)	SGTU	$1023, R2, R4
	0x0144 00324 (/Users/fpf/Downloads/go1.11.1/test/codegen/math.go:35)	BNE	R4, 616
	0x0148 00328 (/Users/fpf/Downloads/go1.11.1/test/codegen/math.go:35)	NOOP
	0x014c 00332 (/Users/fpf/Downloads/go1.11.1/test/codegen/math.go:35)	ADDU	$-1023, R2, R4
	0x0150 00336 (/Users/fpf/Downloads/go1.11.1/test/codegen/math.go:35)	MOVW	$52, R5
	0x0154 00340 (/Users/fpf/Downloads/go1.11.1/test/codegen/math.go:35)	SUBU	R4, R5, R5
	0x0158 00344 (/Users/fpf/Downloads/go1.11.1/test/codegen/math.go:35)	SRL	R5, R3, R6
	0x015c 00348 (/Users/fpf/Downloads/go1.11.1/test/codegen/math.go:35)	SGTU	$32, R5, R7
	0x0160 00352 (/Users/fpf/Downloads/go1.11.1/test/codegen/math.go:35)	CMOVZ	R7, R0, R6
	0x0164 00356 (/Users/fpf/Downloads/go1.11.1/test/codegen/math.go:35)	MOVW	$32, R7
	0x0168 00360 (/Users/fpf/Downloads/go1.11.1/test/codegen/math.go:35)	SUBU	R5, R7, R8
	0x016c 00364 (/Users/fpf/Downloads/go1.11.1/test/codegen/math.go:35)	SLL	R8, R1, R9
	0x0170 00368 (/Users/fpf/Downloads/go1.11.1/test/codegen/math.go:35)	SGTU	$32, R8, R8
	0x0174 00372 (/Users/fpf/Downloads/go1.11.1/test/codegen/math.go:35)	CMOVZ	R8, R0, R9
	0x0178 00376 (/Users/fpf/Downloads/go1.11.1/test/codegen/math.go:35)	OR	R6, R9, R6
	0x017c 00380 (/Users/fpf/Downloads/go1.11.1/test/codegen/math.go:35)	ADDU	$-32, R5, R5
	0x0180 00384 (/Users/fpf/Downloads/go1.11.1/test/codegen/math.go:35)	SRL	R5, R1, R8
	0x0184 00388 (/Users/fpf/Downloads/go1.11.1/test/codegen/math.go:35)	SGTU	$32, R5, R5
	0x0188 00392 (/Users/fpf/Downloads/go1.11.1/test/codegen/math.go:35)	CMOVZ	R5, R0, R8
	0x018c 00396 (/Users/fpf/Downloads/go1.11.1/test/codegen/math.go:35)	OR	R6, R8, R5
	0x0190 00400 (/Users/fpf/Downloads/go1.11.1/test/codegen/math.go:35)	AND	$1, R5, R5
	0x0194 00404 (/Users/fpf/Downloads/go1.11.1/test/codegen/math.go:35)	ADDU	$-1, R5, R5
	0x0198 00408 (/Users/fpf/Downloads/go1.11.1/test/codegen/math.go:35)	SGTU	$-1, R5, R6
	0x019c 00412 (/Users/fpf/Downloads/go1.11.1/test/codegen/math.go:35)	ADDU	$524287, R6, R6
	0x01a8 00424 (/Users/fpf/Downloads/go1.11.1/test/codegen/math.go:35)	ADDU	$-1055, R2, R2
	0x01ac 00428 (/Users/fpf/Downloads/go1.11.1/test/codegen/math.go:35)	SRL	R2, R6, R8
	0x01b0 00432 (/Users/fpf/Downloads/go1.11.1/test/codegen/math.go:35)	SRL	R4, R5, R5
	0x01b4 00436 (/Users/fpf/Downloads/go1.11.1/test/codegen/math.go:35)	SRL	R4, R6, R9
	0x01b8 00440 (/Users/fpf/Downloads/go1.11.1/test/codegen/math.go:35)	SGTU	$32, R4, R10
	0x01bc 00444 (/Users/fpf/Downloads/go1.11.1/test/codegen/math.go:35)	CMOVZ	R10, R0, R9
	0x01c0 00448 (/Users/fpf/Downloads/go1.11.1/test/codegen/math.go:35)	CMOVZ	R10, R0, R5
	0x01c4 00452 (/Users/fpf/Downloads/go1.11.1/test/codegen/math.go:35)	SUBU	R4, R7, R7
	0x01c8 00456 (/Users/fpf/Downloads/go1.11.1/test/codegen/math.go:35)	SLL	R7, R6, R6
	0x01cc 00460 (/Users/fpf/Downloads/go1.11.1/test/codegen/math.go:35)	SGTU	$32, R7, R11
	0x01d0 00464 (/Users/fpf/Downloads/go1.11.1/test/codegen/math.go:35)	CMOVZ	R11, R0, R6
	0x01d4 00468 (/Users/fpf/Downloads/go1.11.1/test/codegen/math.go:35)	OR	R5, R6, R5
	0x01d8 00472 (/Users/fpf/Downloads/go1.11.1/test/codegen/math.go:35)	SGTU	$32, R2, R6
	0x01dc 00476 (/Users/fpf/Downloads/go1.11.1/test/codegen/math.go:35)	CMOVZ	R6, R0, R8
	0x01e0 00480 (/Users/fpf/Downloads/go1.11.1/test/codegen/math.go:35)	OR	R5, R8, R5
	0x01e4 00484 (/Users/fpf/Downloads/go1.11.1/test/codegen/math.go:35)	ADDU	R3, R5, R3
	0x01e8 00488 (/Users/fpf/Downloads/go1.11.1/test/codegen/math.go:35)	SGTU	R5, R3, R5
	0x01ec 00492 (/Users/fpf/Downloads/go1.11.1/test/codegen/math.go:35)	ADDU	R9, R1, R1
	0x01f0 00496 (/Users/fpf/Downloads/go1.11.1/test/codegen/math.go:35)	ADDU	R5, R1, R1
	0x01f4 00500 (/Users/fpf/Downloads/go1.11.1/test/codegen/math.go:35)	MOVW	$1048575, R5
	0x01fc 00508 (/Users/fpf/Downloads/go1.11.1/test/codegen/math.go:35)	SRL	R4, R5, R8
	0x0200 00512 (/Users/fpf/Downloads/go1.11.1/test/codegen/math.go:35)	CMOVZ	R10, R0, R8
	0x0204 00516 (/Users/fpf/Downloads/go1.11.1/test/codegen/math.go:35)	NOR	$0, R8, R8
	0x0208 00520 (/Users/fpf/Downloads/go1.11.1/test/codegen/math.go:35)	AND	R8, R1, R1
	0x020c 00524 (/Users/fpf/Downloads/go1.11.1/test/codegen/math.go:35)	MOVW	$-1, R8
	0x0210 00528 (/Users/fpf/Downloads/go1.11.1/test/codegen/math.go:35)	SRL	R4, R8, R4
	0x0214 00532 (/Users/fpf/Downloads/go1.11.1/test/codegen/math.go:35)	CMOVZ	R10, R0, R4
	0x0218 00536 (/Users/fpf/Downloads/go1.11.1/test/codegen/math.go:35)	SLL	R7, R5, R7
	0x021c 00540 (/Users/fpf/Downloads/go1.11.1/test/codegen/math.go:35)	CMOVZ	R11, R0, R7
	0x0220 00544 (/Users/fpf/Downloads/go1.11.1/test/codegen/math.go:35)	OR	R4, R7, R4
	0x0224 00548 (/Users/fpf/Downloads/go1.11.1/test/codegen/math.go:35)	SRL	R2, R5, R2
	0x0228 00552 (/Users/fpf/Downloads/go1.11.1/test/codegen/math.go:35)	CMOVZ	R6, R0, R2
	0x022c 00556 (/Users/fpf/Downloads/go1.11.1/test/codegen/math.go:35)	OR	R4, R2, R2
	0x0230 00560 (/Users/fpf/Downloads/go1.11.1/test/codegen/math.go:35)	NOR	$0, R2, R2
	0x0234 00564 (/Users/fpf/Downloads/go1.11.1/test/codegen/math.go:35)	AND	R3, R2, R2
	0x0238 00568 (/Users/fpf/Downloads/go1.11.1/test/codegen/math.go:35)	MOVW	R1, math.b-16(SP)
	0x023c 00572 (/Users/fpf/Downloads/go1.11.1/test/codegen/math.go:35)	MOVW	R2, math.b-12(SP)
	0x0240 00576 (/Users/fpf/Downloads/go1.11.1/test/codegen/math.go:35)	MOVF	math.b-12(SP), F0
	0x0244 00580 (/Users/fpf/Downloads/go1.11.1/test/codegen/math.go:35)	MOVF	math.b-16(SP), F1
	0x0248 00584 (/Users/fpf/Downloads/go1.11.1/test/codegen/math.go:35)	MOVF	F0, "".sink64+36(SB)
	0x0250 00592 (/Users/fpf/Downloads/go1.11.1/test/codegen/math.go:35)	MOVF	F1, "".sink64+32(SB)
	0x0258 00600 (/Users/fpf/Downloads/go1.11.1/test/codegen/math.go:36)	MOVW	(R29), R31
	0x025c 00604 (/Users/fpf/Downloads/go1.11.1/test/codegen/math.go:36)	ADDU	$52, R29
	0x0260 00608 (/Users/fpf/Downloads/go1.11.1/test/codegen/math.go:36)	JMP	(R31)
	0x0264 00612 (/Users/fpf/Downloads/go1.11.1/test/codegen/math.go:36)	NOOP
	0x0268 00616 (/Users/fpf/Downloads/go1.11.1/test/codegen/math.go:35)	XOR	$1022, R2, R2
	0x026c 00620 (/Users/fpf/Downloads/go1.11.1/test/codegen/math.go:35)	BNE	R2, 700
	0x0270 00624 (/Users/fpf/Downloads/go1.11.1/test/codegen/math.go:35)	NOOP
	0x0274 00628 (/Users/fpf/Downloads/go1.11.1/test/codegen/math.go:35)	SLL	$12, R1, R2
	0x0278 00632 (/Users/fpf/Downloads/go1.11.1/test/codegen/math.go:35)	SRL	$20, R3, R4
	0x027c 00636 (/Users/fpf/Downloads/go1.11.1/test/codegen/math.go:35)	OR	R4, R2, R2
	0x0280 00640 (/Users/fpf/Downloads/go1.11.1/test/codegen/math.go:35)	SLL	$12, R3, R3
	0x0284 00644 (/Users/fpf/Downloads/go1.11.1/test/codegen/math.go:35)	SRL	$12, R3, R3
	0x0288 00648 (/Users/fpf/Downloads/go1.11.1/test/codegen/math.go:35)	SLL	$20, R2, R4
	0x028c 00652 (/Users/fpf/Downloads/go1.11.1/test/codegen/math.go:35)	OR	R3, R4, R3
	0x0290 00656 (/Users/fpf/Downloads/go1.11.1/test/codegen/math.go:35)	SRL	$12, R2, R2
	0x0294 00660 (/Users/fpf/Downloads/go1.11.1/test/codegen/math.go:35)	OR	R2, R3, R2
	0x0298 00664 (/Users/fpf/Downloads/go1.11.1/test/codegen/math.go:35)	BEQ	R2, 700
	0x029c 00668 (/Users/fpf/Downloads/go1.11.1/test/codegen/math.go:35)	NOOP
	0x02a0 00672 (/Users/fpf/Downloads/go1.11.1/test/codegen/math.go:35)	SRL	$31, R1, R1
	0x02a4 00676 (/Users/fpf/Downloads/go1.11.1/test/codegen/math.go:35)	SLL	$31, R1, R1
	0x02a8 00680 (/Users/fpf/Downloads/go1.11.1/test/codegen/math.go:35)	OR	$1072693248, R1, R1
	0x02b0 00688 (/Users/fpf/Downloads/go1.11.1/test/codegen/math.go:35)	MOVW	$0, R2
	0x02b4 00692 (/Users/fpf/Downloads/go1.11.1/test/codegen/math.go:35)	JMP	568
	0x02b8 00696 (/Users/fpf/Downloads/go1.11.1/test/codegen/math.go:35)	NOOP
	0x02bc 00700 (/Users/fpf/Downloads/go1.11.1/test/codegen/math.go:35)	SRL	$31, R1, R2
	0x02c0 00704 (/Users/fpf/Downloads/go1.11.1/test/codegen/math.go:35)	SLL	$31, R2, R1
	0x02c4 00708 (/Users/fpf/Downloads/go1.11.1/test/codegen/math.go:35)	JMP	688
	0x02c8 00712 (/Users/fpf/Downloads/go1.11.1/test/codegen/math.go:35)	NOOP
	0x02cc 00716 (/Users/fpf/Downloads/go1.11.1/test/codegen/math.go:27)	SGTU	$1075, R2, R4
	0x02d0 00720 (/Users/fpf/Downloads/go1.11.1/test/codegen/math.go:27)	BEQ	R4, 880
	0x02d4 00724 (/Users/fpf/Downloads/go1.11.1/test/codegen/math.go:27)	NOOP
	0x02d8 00728 (/Users/fpf/Downloads/go1.11.1/test/codegen/math.go:27)	ADDU	$-1023, R2, R4
	0x02dc 00732 (/Users/fpf/Downloads/go1.11.1/test/codegen/math.go:27)	MOVW	$32, R5
	0x02e0 00736 (/Users/fpf/Downloads/go1.11.1/test/codegen/math.go:27)	SUBU	R4, R5, R5
	0x02e4 00740 (/Users/fpf/Downloads/go1.11.1/test/codegen/math.go:27)	MOVW	$524288, R6
	0x02e8 00744 (/Users/fpf/Downloads/go1.11.1/test/codegen/math.go:27)	SLL	R5, R6, R7
	0x02ec 00748 (/Users/fpf/Downloads/go1.11.1/test/codegen/math.go:27)	SGTU	$32, R5, R8
	0x02f0 00752 (/Users/fpf/Downloads/go1.11.1/test/codegen/math.go:27)	CMOVZ	R8, R0, R7
	0x02f4 00756 (/Users/fpf/Downloads/go1.11.1/test/codegen/math.go:27)	ADDU	$-1055, R2, R2
	0x02f8 00760 (/Users/fpf/Downloads/go1.11.1/test/codegen/math.go:27)	SRL	R2, R6, R9
	0x02fc 00764 (/Users/fpf/Downloads/go1.11.1/test/codegen/math.go:27)	SGTU	$32, R2, R10
	0x0300 00768 (/Users/fpf/Downloads/go1.11.1/test/codegen/math.go:27)	CMOVZ	R10, R0, R9
	0x0304 00772 (/Users/fpf/Downloads/go1.11.1/test/codegen/math.go:27)	OR	R7, R9, R7
	0x0308 00776 (/Users/fpf/Downloads/go1.11.1/test/codegen/math.go:27)	ADDU	R3, R7, R3
	0x030c 00780 (/Users/fpf/Downloads/go1.11.1/test/codegen/math.go:27)	SGTU	R7, R3, R7
	0x0310 00784 (/Users/fpf/Downloads/go1.11.1/test/codegen/math.go:27)	SRL	R4, R6, R6
	0x0314 00788 (/Users/fpf/Downloads/go1.11.1/test/codegen/math.go:27)	SGTU	$32, R4, R9
	0x0318 00792 (/Users/fpf/Downloads/go1.11.1/test/codegen/math.go:27)	CMOVZ	R9, R0, R6
	0x031c 00796 (/Users/fpf/Downloads/go1.11.1/test/codegen/math.go:27)	ADDU	R6, R1, R1
	0x0320 00800 (/Users/fpf/Downloads/go1.11.1/test/codegen/math.go:27)	ADDU	R7, R1, R1
	0x0324 00804 (/Users/fpf/Downloads/go1.11.1/test/codegen/math.go:27)	MOVW	$1048575, R6
	0x032c 00812 (/Users/fpf/Downloads/go1.11.1/test/codegen/math.go:27)	SRL	R4, R6, R7
	0x0330 00816 (/Users/fpf/Downloads/go1.11.1/test/codegen/math.go:27)	CMOVZ	R9, R0, R7
	0x0334 00820 (/Users/fpf/Downloads/go1.11.1/test/codegen/math.go:27)	NOR	$0, R7, R7
	0x0338 00824 (/Users/fpf/Downloads/go1.11.1/test/codegen/math.go:27)	AND	R7, R1, R1
	0x033c 00828 (/Users/fpf/Downloads/go1.11.1/test/codegen/math.go:27)	MOVW	$-1, R7
	0x0340 00832 (/Users/fpf/Downloads/go1.11.1/test/codegen/math.go:27)	SRL	R4, R7, R4
	0x0344 00836 (/Users/fpf/Downloads/go1.11.1/test/codegen/math.go:27)	CMOVZ	R9, R0, R4
	0x0348 00840 (/Users/fpf/Downloads/go1.11.1/test/codegen/math.go:27)	SLL	R5, R6, R5
	0x034c 00844 (/Users/fpf/Downloads/go1.11.1/test/codegen/math.go:27)	CMOVZ	R8, R0, R5
	0x0350 00848 (/Users/fpf/Downloads/go1.11.1/test/codegen/math.go:27)	OR	R4, R5, R4
	0x0354 00852 (/Users/fpf/Downloads/go1.11.1/test/codegen/math.go:27)	SRL	R2, R6, R2
	0x0358 00856 (/Users/fpf/Downloads/go1.11.1/test/codegen/math.go:27)	CMOVZ	R10, R0, R2
	0x035c 00860 (/Users/fpf/Downloads/go1.11.1/test/codegen/math.go:27)	OR	R4, R2, R2
	0x0360 00864 (/Users/fpf/Downloads/go1.11.1/test/codegen/math.go:27)	NOR	$0, R2, R2
	0x0364 00868 (/Users/fpf/Downloads/go1.11.1/test/codegen/math.go:27)	AND	R3, R2, R2
	0x0368 00872 (/Users/fpf/Downloads/go1.11.1/test/codegen/math.go:27)	JMP	216
	0x036c 00876 (/Users/fpf/Downloads/go1.11.1/test/codegen/math.go:27)	NOOP
	0x0370 00880 (/Users/fpf/Downloads/go1.11.1/test/codegen/math.go:27)	MOVW	$1048575, R6
	0x0378 00888 (/Users/fpf/Downloads/go1.11.1/test/codegen/math.go:27)	MOVW	$-1, R7
	0x037c 00892 (/Users/fpf/Downloads/go1.11.1/test/codegen/math.go:27)	MOVW	R3, R2
	0x0380 00896 (/Users/fpf/Downloads/go1.11.1/test/codegen/math.go:27)	JMP	216
	0x0384 00900 (/Users/fpf/Downloads/go1.11.1/test/codegen/math.go:27)	NOOP
	0x0000 8f c1 00 08 00 3d 08 2b 14 20 00 06 00 00 00 00  .....=.+. ......
	0x0010 03 e0 18 25 0c 00 00 05 00 00 00 00 10 00 ff f8  ...%............
	0x0020 00 00 00 00 af bf ff cc 27 bd ff cc c7 a0 00 3c  ........'......<
	0x0030 c7 a1 00 38 e7 a0 00 08 e7 a1 00 04 0c 00 00 0f  ...8............
	0x0040 00 00 00 00 c7 a0 00 10 c7 a1 00 0c 3c 17 00 00  ............<...
	0x0050 e6 e0 00 00 3c 17 00 00 e6 e1 00 00 c7 a0 00 3c  ....<..........<
	0x0060 c7 a1 00 38 e7 a0 00 08 e7 a1 00 04 0c 00 00 1b  ...8............
	0x0070 00 00 00 00 c7 a0 00 10 c7 a1 00 0c 3c 17 00 00  ............<...
	0x0080 e6 e0 00 00 3c 17 00 00 e6 e1 00 00 c7 a0 00 3c  ....<..........<
	0x0090 c7 a1 00 38 e7 a0 00 20 e7 a1 00 1c 8f a1 00 1c  ...8... ........
	0x00a0 00 01 15 02 30 42 07 ff 8f a3 00 20 2c 44 03 ff  ....0B..... ,D..
	0x00b0 10 80 00 86 00 00 00 00 00 01 0f c2 00 01 0f c0  ................
	0x00c0 38 42 03 fe 14 40 00 03 00 00 00 00 3c 17 3f f0  8B...@......<.?.
	0x00d0 00 37 08 25 00 00 10 25 af a1 00 2c af a2 00 30  .7.%...%...,...0
	0x00e0 c7 a2 00 30 c7 a3 00 2c 3c 17 00 00 e6 e2 00 00  ...0...,<.......
	0x00f0 3c 17 00 00 e6 e3 00 00 e7 a0 00 08 e7 a1 00 04  <...............
	0x0100 0c 00 00 40 00 00 00 00 c7 a0 00 10 c7 a1 00 0c  ...@............
	0x0110 3c 17 00 00 e6 e0 00 00 3c 17 00 00 e6 e1 00 00  <.......<.......
	0x0120 c7 a0 00 3c c7 a1 00 38 e7 a0 00 18 e7 a1 00 14  ...<...8........
	0x0130 8f a1 00 14 00 01 15 02 30 42 07 ff 8f a3 00 18  ........0B......
	0x0140 2c 44 03 ff 14 80 00 48 00 00 00 00 24 44 fc 01  ,D.....H....$D..
	0x0150 24 05 00 34 00 a4 28 23 00 a3 30 06 2c a7 00 20  $..4..(#..0.,.. 
	0x0160 00 07 30 0a 24 07 00 20 00 e5 40 23 01 01 48 04  ..0.$.. ..@#..H.
	0x0170 2d 08 00 20 00 08 48 0a 01 26 30 25 24 a5 ff e0  -.. ..H..&0%$...
	0x0180 00 a1 40 06 2c a5 00 20 00 05 40 0a 01 06 28 25  ..@.,.. ..@...(%
	0x0190 30 a5 00 01 24 a5 ff ff 2c a6 ff ff 3c 17 00 07  0...$...,...<...
	0x01a0 36 f7 ff ff 00 d7 30 21 24 42 fb e1 00 46 40 06  6.....0!$B...F@.
	0x01b0 00 85 28 06 00 86 48 06 2c 8a 00 20 00 0a 48 0a  ..(...H.,.. ..H.
	0x01c0 00 0a 28 0a 00 e4 38 23 00 e6 30 04 2c eb 00 20  ..(...8#..0.,.. 
	0x01d0 00 0b 30 0a 00 c5 28 25 2c 46 00 20 00 06 40 0a  ..0...(%,F. ..@.
	0x01e0 01 05 28 25 00 a3 18 21 00 65 28 2b 00 29 08 21  ..(%...!.e(+.).!
	0x01f0 00 25 08 21 3c 05 00 0f 34 a5 ff ff 00 85 40 06  .%.!<...4.....@.
	0x0200 00 0a 40 0a 01 00 40 27 00 28 08 24 24 08 ff ff  ..@...@'.(.$$...
	0x0210 00 88 20 06 00 0a 20 0a 00 e5 38 04 00 0b 38 0a  .. ... ...8...8.
	0x0220 00 e4 20 25 00 45 10 06 00 06 10 0a 00 44 10 25  .. %.E.......D.%
	0x0230 00 40 10 27 00 43 10 24 af a1 00 24 af a2 00 28  .@.'.C.$...$...(
	0x0240 c7 a0 00 28 c7 a1 00 24 3c 17 00 00 e6 e0 00 00  ...(...$<.......
	0x0250 3c 17 00 00 e6 e1 00 00 8f bf 00 00 27 bd 00 34  <...........'..4
	0x0260 03 e0 00 08 00 00 00 00 38 42 03 fe 14 40 00 13  ........8B...@..
	0x0270 00 00 00 00 00 01 13 00 00 03 25 02 00 44 10 25  ..........%..D.%
	0x0280 00 03 1b 00 00 03 1b 02 00 02 25 00 00 83 18 25  ..........%....%
	0x0290 00 02 13 02 00 62 10 25 10 40 00 08 00 00 00 00  .....b.%.@......
	0x02a0 00 01 0f c2 00 01 0f c0 3c 17 3f f0 00 37 08 25  ........<.?..7.%
	0x02b0 00 00 10 25 10 00 ff e0 00 00 00 00 00 01 17 c2  ...%............
	0x02c0 00 02 0f c0 10 00 ff fa 00 00 00 00 2c 44 04 33  ............,D.3
	0x02d0 10 80 00 27 00 00 00 00 24 44 fc 01 24 05 00 20  ...'....$D..$.. 
	0x02e0 00 a4 28 23 3c 06 00 08 00 a6 38 04 2c a8 00 20  ..(#<.....8.,.. 
	0x02f0 00 08 38 0a 24 42 fb e1 00 46 48 06 2c 4a 00 20  ..8.$B...FH.,J. 
	0x0300 00 0a 48 0a 01 27 38 25 00 e3 18 21 00 67 38 2b  ..H..'8%...!.g8+
	0x0310 00 86 30 06 2c 89 00 20 00 09 30 0a 00 26 08 21  ..0.,.. ..0..&.!
	0x0320 00 27 08 21 3c 06 00 0f 34 c6 ff ff 00 86 38 06  .'.!<...4.....8.
	0x0330 00 09 38 0a 00 e0 38 27 00 27 08 24 24 07 ff ff  ..8...8'.'.$$...
	0x0340 00 87 20 06 00 09 20 0a 00 a6 28 04 00 08 28 0a  .. ... ...(...(.
	0x0350 00 a4 20 25 00 46 10 06 00 0a 10 0a 00 44 10 25  .. %.F.......D.%
	0x0360 00 40 10 27 00 43 10 24 10 00 ff 5b 00 00 00 00  .@.'.C.$...[....
	0x0370 3c 06 00 0f 34 c6 ff ff 24 07 ff ff 00 60 10 25  <...4...$....`.%
	0x0380 10 00 ff 55 00 00 00 00                          ...U....
	rel 20+4 t=13 runtime.morestack_noctxt+0
	rel 60+4 t=13 math.Ceil+0
	rel 76+4 t=42 "".sink64+4
	rel 80+4 t=4 "".sink64+4
	rel 84+4 t=42 "".sink64+0
	rel 88+4 t=4 "".sink64+0
	rel 108+4 t=13 math.Floor+0
	rel 124+4 t=42 "".sink64+12
	rel 128+4 t=4 "".sink64+12
	rel 132+4 t=42 "".sink64+8
	rel 136+4 t=4 "".sink64+8
	rel 232+4 t=42 "".sink64+20
	rel 236+4 t=4 "".sink64+20
	rel 240+4 t=42 "".sink64+16
	rel 244+4 t=4 "".sink64+16
	rel 256+4 t=13 math.Trunc+0
	rel 272+4 t=42 "".sink64+28
	rel 276+4 t=4 "".sink64+28
	rel 280+4 t=42 "".sink64+24
	rel 284+4 t=4 "".sink64+24
	rel 584+4 t=42 "".sink64+36
	rel 588+4 t=4 "".sink64+36
	rel 592+4 t=42 "".sink64+32
	rel 596+4 t=4 "".sink64+32
	rel 608+0 t=11 +0
"".sqrt STEXT size=28 args=0x10 locals=0x0 leaf
	0x0000 00000 (/Users/fpf/Downloads/go1.11.1/test/codegen/math.go:38)	TEXT	"".sqrt(SB), LEAF|NOFRAME, $-4-16
	0x0000 00000 (/Users/fpf/Downloads/go1.11.1/test/codegen/math.go:38)	FUNCDATA	$0, gclocals·2002e13acf59079a1a5782c918894579(SB)
	0x0000 00000 (/Users/fpf/Downloads/go1.11.1/test/codegen/math.go:38)	FUNCDATA	$1, gclocals·2002e13acf59079a1a5782c918894579(SB)
	0x0000 00000 (/Users/fpf/Downloads/go1.11.1/test/codegen/math.go:38)	FUNCDATA	$3, gclocals·2002e13acf59079a1a5782c918894579(SB)
	0x0000 00000 (/Users/fpf/Downloads/go1.11.1/test/codegen/math.go:45)	PCDATA	$2, $0
	0x0000 00000 (/Users/fpf/Downloads/go1.11.1/test/codegen/math.go:45)	PCDATA	$0, $0
	0x0000 00000 (/Users/fpf/Downloads/go1.11.1/test/codegen/math.go:45)	MOVF	"".x+4(FP), F0
	0x0004 00004 (/Users/fpf/Downloads/go1.11.1/test/codegen/math.go:45)	MOVF	"".x(FP), F1
	0x0008 00008 (/Users/fpf/Downloads/go1.11.1/test/codegen/math.go:45)	SQRTD	F0, F0
	0x000c 00012 (/Users/fpf/Downloads/go1.11.1/test/codegen/math.go:45)	MOVF	F0, "".~r1+12(FP)
	0x0010 00016 (/Users/fpf/Downloads/go1.11.1/test/codegen/math.go:45)	MOVF	F1, "".~r1+8(FP)
	0x0014 00020 (/Users/fpf/Downloads/go1.11.1/test/codegen/math.go:45)	JMP	(R31)
	0x0018 00024 (/Users/fpf/Downloads/go1.11.1/test/codegen/math.go:45)	NOOP
	0x0000 c7 a0 00 08 c7 a1 00 04 46 20 00 04 e7 a0 00 10  ........F ......
	0x0010 e7 a1 00 0c 03 e0 00 08 00 00 00 00              ............
	rel 20+0 t=11 +0
"".abs STEXT size=236 args=0x10 locals=0x20 leaf
	0x0000 00000 (/Users/fpf/Downloads/go1.11.1/test/codegen/math.go:49)	TEXT	"".abs(SB), LEAF, $32-16
	0x0000 00000 (/Users/fpf/Downloads/go1.11.1/test/codegen/math.go:49)	MOVW	8(g), R1
	0x0004 00004 (/Users/fpf/Downloads/go1.11.1/test/codegen/math.go:49)	SGTU	R29, R1, R1
	0x0008 00008 (/Users/fpf/Downloads/go1.11.1/test/codegen/math.go:49)	BNE	R1, 36
	0x000c 00012 (/Users/fpf/Downloads/go1.11.1/test/codegen/math.go:49)	NOOP
	0x0010 00016 (/Users/fpf/Downloads/go1.11.1/test/codegen/math.go:49)	MOVW	R31, R3
	0x0014 00020 (/Users/fpf/Downloads/go1.11.1/test/codegen/math.go:49)	PCDATA	$0, $-1
	0x0014 00020 (/Users/fpf/Downloads/go1.11.1/test/codegen/math.go:49)	PCDATA	$2, $-1
	0x0014 00020 (/Users/fpf/Downloads/go1.11.1/test/codegen/math.go:49)	CALL	runtime.morestack_noctxt(SB)
	0x0018 00024 (/Users/fpf/Downloads/go1.11.1/test/codegen/math.go:49)	NOOP
	0x001c 00028 (/Users/fpf/Downloads/go1.11.1/test/codegen/math.go:49)	JMP	0
	0x0020 00032 (/Users/fpf/Downloads/go1.11.1/test/codegen/math.go:49)	NOOP
	0x0024 00036 (/Users/fpf/Downloads/go1.11.1/test/codegen/math.go:49)	NOP
	0x0024 00036 (/Users/fpf/Downloads/go1.11.1/test/codegen/math.go:49)	MOVW	R31, -36(R29)
	0x0028 00040 (/Users/fpf/Downloads/go1.11.1/test/codegen/math.go:49)	ADDU	$-36, R29
	0x002c 00044 (/Users/fpf/Downloads/go1.11.1/test/codegen/math.go:49)	FUNCDATA	$0, gclocals·2002e13acf59079a1a5782c918894579(SB)
	0x002c 00044 (/Users/fpf/Downloads/go1.11.1/test/codegen/math.go:49)	FUNCDATA	$1, gclocals·2002e13acf59079a1a5782c918894579(SB)
	0x002c 00044 (/Users/fpf/Downloads/go1.11.1/test/codegen/math.go:49)	FUNCDATA	$3, gclocals·2002e13acf59079a1a5782c918894579(SB)
	0x002c 00044 (/Users/fpf/Downloads/go1.11.1/test/codegen/math.go:53)	PCDATA	$2, $0
	0x002c 00044 (/Users/fpf/Downloads/go1.11.1/test/codegen/math.go:53)	PCDATA	$0, $0
	0x002c 00044 (/Users/fpf/Downloads/go1.11.1/test/codegen/math.go:53)	MOVF	"".x+4(FP), F0
	0x0030 00048 (/Users/fpf/Downloads/go1.11.1/test/codegen/math.go:53)	MOVF	"".x(FP), F1
	0x0034 00052 (/Users/fpf/Downloads/go1.11.1/test/codegen/math.go:53)	MOVF	F0, math.f-20(SP)
	0x0038 00056 (/Users/fpf/Downloads/go1.11.1/test/codegen/math.go:53)	MOVF	F1, math.f-24(SP)
	0x003c 00060 (/Users/fpf/Downloads/go1.11.1/test/codegen/math.go:53)	MOVW	math.f-20(SP), R1
	0x0040 00064 (/Users/fpf/Downloads/go1.11.1/test/codegen/math.go:53)	MOVW	math.f-24(SP), R2
	0x0044 00068 (/Users/fpf/Downloads/go1.11.1/test/codegen/math.go:53)	SLL	$1, R2, R2
	0x0048 00072 (/Users/fpf/Downloads/go1.11.1/test/codegen/math.go:53)	SRL	$31, R1, R3
	0x004c 00076 (/Users/fpf/Downloads/go1.11.1/test/codegen/math.go:53)	OR	R3, R2, R2
	0x0050 00080 (/Users/fpf/Downloads/go1.11.1/test/codegen/math.go:53)	SRL	$1, R2, R3
	0x0054 00084 (/Users/fpf/Downloads/go1.11.1/test/codegen/math.go:53)	MOVW	R3, math.b-8(SP)
	0x0058 00088 (/Users/fpf/Downloads/go1.11.1/test/codegen/math.go:53)	SLL	$31, R2, R2
	0x005c 00092 (/Users/fpf/Downloads/go1.11.1/test/codegen/math.go:53)	SLL	$1, R1, R1
	0x0060 00096 (/Users/fpf/Downloads/go1.11.1/test/codegen/math.go:53)	SRL	$1, R1, R1
	0x0064 00100 (/Users/fpf/Downloads/go1.11.1/test/codegen/math.go:53)	OR	R2, R1, R1
	0x0068 00104 (/Users/fpf/Downloads/go1.11.1/test/codegen/math.go:53)	MOVW	R1, math.b-4(SP)
	0x006c 00108 (/Users/fpf/Downloads/go1.11.1/test/codegen/math.go:53)	MOVF	math.b-4(SP), F0
	0x0070 00112 (/Users/fpf/Downloads/go1.11.1/test/codegen/math.go:53)	MOVF	math.b-8(SP), F1
	0x0074 00116 (/Users/fpf/Downloads/go1.11.1/test/codegen/math.go:53)	MOVF	F0, "".sink64+4(SB)
	0x007c 00124 (/Users/fpf/Downloads/go1.11.1/test/codegen/math.go:53)	MOVF	F1, "".sink64(SB)
	0x0084 00132 (/Users/fpf/Downloads/go1.11.1/test/codegen/math.go:58)	MOVF	"".y+12(FP), F0
	0x0088 00136 (/Users/fpf/Downloads/go1.11.1/test/codegen/math.go:58)	MOVF	"".y+8(FP), F1
	0x008c 00140 (/Users/fpf/Downloads/go1.11.1/test/codegen/math.go:58)	MOVF	F0, math.f-28(SP)
	0x0090 00144 (/Users/fpf/Downloads/go1.11.1/test/codegen/math.go:58)	MOVF	F1, math.f-32(SP)
	0x0094 00148 (/Users/fpf/Downloads/go1.11.1/test/codegen/math.go:58)	MOVW	math.f-28(SP), R1
	0x0098 00152 (/Users/fpf/Downloads/go1.11.1/test/codegen/math.go:58)	MOVW	math.f-32(SP), R2
	0x009c 00156 (/Users/fpf/Downloads/go1.11.1/test/codegen/math.go:58)	SRL	$31, R1, R3
	0x00a0 00160 (/Users/fpf/Downloads/go1.11.1/test/codegen/math.go:58)	SLL	$1, R2, R2
	0x00a4 00164 (/Users/fpf/Downloads/go1.11.1/test/codegen/math.go:58)	OR	R3, R2, R2
	0x00a8 00168 (/Users/fpf/Downloads/go1.11.1/test/codegen/math.go:58)	SRL	$1, R2, R3
	0x00ac 00172 (/Users/fpf/Downloads/go1.11.1/test/codegen/math.go:58)	MOVW	R3, math.b-16(SP)
	0x00b0 00176 (/Users/fpf/Downloads/go1.11.1/test/codegen/math.go:58)	SLL	$1, R1, R1
	0x00b4 00180 (/Users/fpf/Downloads/go1.11.1/test/codegen/math.go:58)	SRL	$1, R1, R1
	0x00b8 00184 (/Users/fpf/Downloads/go1.11.1/test/codegen/math.go:58)	SLL	$31, R2, R2
	0x00bc 00188 (/Users/fpf/Downloads/go1.11.1/test/codegen/math.go:58)	OR	R2, R1, R1
	0x00c0 00192 (/Users/fpf/Downloads/go1.11.1/test/codegen/math.go:58)	MOVW	R1, math.b-12(SP)
	0x00c4 00196 (/Users/fpf/Downloads/go1.11.1/test/codegen/math.go:58)	MOVF	math.b-12(SP), F0
	0x00c8 00200 (/Users/fpf/Downloads/go1.11.1/test/codegen/math.go:58)	MOVF	math.b-16(SP), F1
	0x00cc 00204 (/Users/fpf/Downloads/go1.11.1/test/codegen/math.go:58)	NEGD	F0, F0
	0x00d0 00208 (/Users/fpf/Downloads/go1.11.1/test/codegen/math.go:58)	MOVF	F0, "".sink64+12(SB)
	0x00d8 00216 (/Users/fpf/Downloads/go1.11.1/test/codegen/math.go:58)	MOVF	F1, "".sink64+8(SB)
	0x00e0 00224 (/Users/fpf/Downloads/go1.11.1/test/codegen/math.go:59)	ADDU	$36, R29
	0x00e4 00228 (/Users/fpf/Downloads/go1.11.1/test/codegen/math.go:59)	JMP	(R31)
	0x00e8 00232 (/Users/fpf/Downloads/go1.11.1/test/codegen/math.go:59)	NOOP
	0x0000 8f c1 00 08 00 3d 08 2b 14 20 00 06 00 00 00 00  .....=.+. ......
	0x0010 03 e0 18 25 0c 00 00 05 00 00 00 00 10 00 ff f8  ...%............
	0x0020 00 00 00 00 af bf ff dc 27 bd ff dc c7 a0 00 2c  ........'......,
	0x0030 c7 a1 00 28 e7 a0 00 10 e7 a1 00 0c 8f a1 00 10  ...(............
	0x0040 8f a2 00 0c 00 02 10 40 00 01 1f c2 00 43 10 25  .......@.....C.%
	0x0050 00 02 18 42 af a3 00 1c 00 02 17 c0 00 01 08 40  ...B...........@
	0x0060 00 01 08 42 00 22 08 25 af a1 00 20 c7 a0 00 20  ...B.".%... ... 
	0x0070 c7 a1 00 1c 3c 17 00 00 e6 e0 00 00 3c 17 00 00  ....<.......<...
	0x0080 e6 e1 00 00 c7 a0 00 34 c7 a1 00 30 e7 a0 00 08  .......4...0....
	0x0090 e7 a1 00 04 8f a1 00 08 8f a2 00 04 00 01 1f c2  ................
	0x00a0 00 02 10 40 00 43 10 25 00 02 18 42 af a3 00 14  ...@.C.%...B....
	0x00b0 00 01 08 40 00 01 08 42 00 02 17 c0 00 22 08 25  ...@...B.....".%
	0x00c0 af a1 00 18 c7 a0 00 18 c7 a1 00 14 46 20 00 07  ............F ..
	0x00d0 3c 17 00 00 e6 e0 00 00 3c 17 00 00 e6 e1 00 00  <.......<.......
	0x00e0 27 bd 00 24 03 e0 00 08 00 00 00 00              '..$........
	rel 20+4 t=13 runtime.morestack_noctxt+0
	rel 116+4 t=42 "".sink64+4
	rel 120+4 t=4 "".sink64+4
	rel 124+4 t=42 "".sink64+0
	rel 128+4 t=4 "".sink64+0
	rel 208+4 t=42 "".sink64+12
	rel 212+4 t=4 "".sink64+12
	rel 216+4 t=42 "".sink64+8
	rel 220+4 t=4 "".sink64+8
	rel 228+0 t=11 +0
"".abs32 STEXT size=136 args=0x8 locals=0x10 leaf
	0x0000 00000 (/Users/fpf/Downloads/go1.11.1/test/codegen/math.go:62)	TEXT	"".abs32(SB), LEAF, $16-8
	0x0000 00000 (/Users/fpf/Downloads/go1.11.1/test/codegen/math.go:62)	MOVW	8(g), R1
	0x0004 00004 (/Users/fpf/Downloads/go1.11.1/test/codegen/math.go:62)	SGTU	R29, R1, R1
	0x0008 00008 (/Users/fpf/Downloads/go1.11.1/test/codegen/math.go:62)	BNE	R1, 36
	0x000c 00012 (/Users/fpf/Downloads/go1.11.1/test/codegen/math.go:62)	NOOP
	0x0010 00016 (/Users/fpf/Downloads/go1.11.1/test/codegen/math.go:62)	MOVW	R31, R3
	0x0014 00020 (/Users/fpf/Downloads/go1.11.1/test/codegen/math.go:62)	PCDATA	$0, $-1
	0x0014 00020 (/Users/fpf/Downloads/go1.11.1/test/codegen/math.go:62)	PCDATA	$2, $-1
	0x0014 00020 (/Users/fpf/Downloads/go1.11.1/test/codegen/math.go:62)	CALL	runtime.morestack_noctxt(SB)
	0x0018 00024 (/Users/fpf/Downloads/go1.11.1/test/codegen/math.go:62)	NOOP
	0x001c 00028 (/Users/fpf/Downloads/go1.11.1/test/codegen/math.go:62)	JMP	0
	0x0020 00032 (/Users/fpf/Downloads/go1.11.1/test/codegen/math.go:62)	NOOP
	0x0024 00036 (/Users/fpf/Downloads/go1.11.1/test/codegen/math.go:62)	NOP
	0x0024 00036 (/Users/fpf/Downloads/go1.11.1/test/codegen/math.go:62)	MOVW	R31, -20(R29)
	0x0028 00040 (/Users/fpf/Downloads/go1.11.1/test/codegen/math.go:62)	ADDU	$-20, R29
	0x002c 00044 (/Users/fpf/Downloads/go1.11.1/test/codegen/math.go:62)	FUNCDATA	$0, gclocals·2002e13acf59079a1a5782c918894579(SB)
	0x002c 00044 (/Users/fpf/Downloads/go1.11.1/test/codegen/math.go:62)	FUNCDATA	$1, gclocals·2002e13acf59079a1a5782c918894579(SB)
	0x002c 00044 (/Users/fpf/Downloads/go1.11.1/test/codegen/math.go:62)	FUNCDATA	$3, gclocals·2002e13acf59079a1a5782c918894579(SB)
	0x002c 00044 (/Users/fpf/Downloads/go1.11.1/test/codegen/math.go:64)	PCDATA	$2, $0
	0x002c 00044 (/Users/fpf/Downloads/go1.11.1/test/codegen/math.go:64)	PCDATA	$0, $0
	0x002c 00044 (/Users/fpf/Downloads/go1.11.1/test/codegen/math.go:64)	MOVF	"".x(FP), F0
	0x0030 00048 (/Users/fpf/Downloads/go1.11.1/test/codegen/math.go:64)	MOVFD	F0, F0
	0x0034 00052 (/Users/fpf/Downloads/go1.11.1/test/codegen/math.go:64)	MOVF	F0, math.f-12(SP)
	0x0038 00056 (/Users/fpf/Downloads/go1.11.1/test/codegen/math.go:64)	MOVF	F1, math.f-16(SP)
	0x003c 00060 (/Users/fpf/Downloads/go1.11.1/test/codegen/math.go:64)	MOVW	math.f-16(SP), R1
	0x0040 00064 (/Users/fpf/Downloads/go1.11.1/test/codegen/math.go:64)	MOVW	math.f-12(SP), R2
	0x0044 00068 (/Users/fpf/Downloads/go1.11.1/test/codegen/math.go:64)	SRL	$31, R2, R3
	0x0048 00072 (/Users/fpf/Downloads/go1.11.1/test/codegen/math.go:64)	SLL	$1, R1, R1
	0x004c 00076 (/Users/fpf/Downloads/go1.11.1/test/codegen/math.go:64)	OR	R1, R3, R1
	0x0050 00080 (/Users/fpf/Downloads/go1.11.1/test/codegen/math.go:64)	SRL	$1, R1, R3
	0x0054 00084 (/Users/fpf/Downloads/go1.11.1/test/codegen/math.go:64)	MOVW	R3, math.b-8(SP)
	0x0058 00088 (/Users/fpf/Downloads/go1.11.1/test/codegen/math.go:64)	SLL	$1, R2, R2
	0x005c 00092 (/Users/fpf/Downloads/go1.11.1/test/codegen/math.go:64)	SRL	$1, R2, R2
	0x0060 00096 (/Users/fpf/Downloads/go1.11.1/test/codegen/math.go:64)	SLL	$31, R1, R1
	0x0064 00100 (/Users/fpf/Downloads/go1.11.1/test/codegen/math.go:64)	OR	R2, R1, R1
	0x0068 00104 (/Users/fpf/Downloads/go1.11.1/test/codegen/math.go:64)	MOVW	R1, math.b-4(SP)
	0x006c 00108 (/Users/fpf/Downloads/go1.11.1/test/codegen/math.go:64)	MOVF	math.b-4(SP), F0
	0x0070 00112 (/Users/fpf/Downloads/go1.11.1/test/codegen/math.go:64)	MOVF	math.b-8(SP), F1
	0x0074 00116 (/Users/fpf/Downloads/go1.11.1/test/codegen/math.go:64)	MOVDF	F0, F0
	0x0078 00120 (/Users/fpf/Downloads/go1.11.1/test/codegen/math.go:64)	MOVF	F0, "".~r1+4(FP)
	0x007c 00124 (/Users/fpf/Downloads/go1.11.1/test/codegen/math.go:64)	ADDU	$20, R29
	0x0080 00128 (/Users/fpf/Downloads/go1.11.1/test/codegen/math.go:64)	JMP	(R31)
	0x0084 00132 (/Users/fpf/Downloads/go1.11.1/test/codegen/math.go:64)	NOOP
	0x0000 8f c1 00 08 00 3d 08 2b 14 20 00 06 00 00 00 00  .....=.+. ......
	0x0010 03 e0 18 25 0c 00 00 05 00 00 00 00 10 00 ff f8  ...%............
	0x0020 00 00 00 00 af bf ff ec 27 bd ff ec c7 a0 00 18  ........'.......
	0x0030 46 00 00 21 e7 a0 00 08 e7 a1 00 04 8f a1 00 04  F..!............
	0x0040 8f a2 00 08 00 02 1f c2 00 01 08 40 00 61 08 25  ...........@.a.%
	0x0050 00 01 18 42 af a3 00 0c 00 02 10 40 00 02 10 42  ...B.......@...B
	0x0060 00 01 0f c0 00 22 08 25 af a1 00 10 c7 a0 00 10  .....".%........
	0x0070 c7 a1 00 0c 46 20 00 20 e7 a0 00 1c 27 bd 00 14  ....F . ....'...
	0x0080 03 e0 00 08 00 00 00 00                          ........
	rel 20+4 t=13 runtime.morestack_noctxt+0
	rel 128+0 t=11 +0
"".copysign STEXT size=388 args=0x18 locals=0x48 leaf
	0x0000 00000 (/Users/fpf/Downloads/go1.11.1/test/codegen/math.go:68)	TEXT	"".copysign(SB), LEAF, $72-24
	0x0000 00000 (/Users/fpf/Downloads/go1.11.1/test/codegen/math.go:68)	MOVW	8(g), R1
	0x0004 00004 (/Users/fpf/Downloads/go1.11.1/test/codegen/math.go:68)	SGTU	R29, R1, R1
	0x0008 00008 (/Users/fpf/Downloads/go1.11.1/test/codegen/math.go:68)	BNE	R1, 36
	0x000c 00012 (/Users/fpf/Downloads/go1.11.1/test/codegen/math.go:68)	NOOP
	0x0010 00016 (/Users/fpf/Downloads/go1.11.1/test/codegen/math.go:68)	MOVW	R31, R3
	0x0014 00020 (/Users/fpf/Downloads/go1.11.1/test/codegen/math.go:68)	PCDATA	$0, $-1
	0x0014 00020 (/Users/fpf/Downloads/go1.11.1/test/codegen/math.go:68)	PCDATA	$2, $-1
	0x0014 00020 (/Users/fpf/Downloads/go1.11.1/test/codegen/math.go:68)	CALL	runtime.morestack_noctxt(SB)
	0x0018 00024 (/Users/fpf/Downloads/go1.11.1/test/codegen/math.go:68)	NOOP
	0x001c 00028 (/Users/fpf/Downloads/go1.11.1/test/codegen/math.go:68)	JMP	0
	0x0020 00032 (/Users/fpf/Downloads/go1.11.1/test/codegen/math.go:68)	NOOP
	0x0024 00036 (/Users/fpf/Downloads/go1.11.1/test/codegen/math.go:68)	NOP
	0x0024 00036 (/Users/fpf/Downloads/go1.11.1/test/codegen/math.go:68)	MOVW	R31, -76(R29)
	0x0028 00040 (/Users/fpf/Downloads/go1.11.1/test/codegen/math.go:68)	ADDU	$-76, R29
	0x002c 00044 (/Users/fpf/Downloads/go1.11.1/test/codegen/math.go:68)	FUNCDATA	$0, gclocals·2002e13acf59079a1a5782c918894579(SB)
	0x002c 00044 (/Users/fpf/Downloads/go1.11.1/test/codegen/math.go:68)	FUNCDATA	$1, gclocals·2002e13acf59079a1a5782c918894579(SB)
	0x002c 00044 (/Users/fpf/Downloads/go1.11.1/test/codegen/math.go:68)	FUNCDATA	$3, gclocals·2002e13acf59079a1a5782c918894579(SB)
	0x002c 00044 (/Users/fpf/Downloads/go1.11.1/test/codegen/math.go:72)	PCDATA	$2, $0
	0x002c 00044 (/Users/fpf/Downloads/go1.11.1/test/codegen/math.go:72)	PCDATA	$0, $0
	0x002c 00044 (/Users/fpf/Downloads/go1.11.1/test/codegen/math.go:72)	MOVF	"".a+4(FP), F0
	0x0030 00048 (/Users/fpf/Downloads/go1.11.1/test/codegen/math.go:72)	MOVF	"".a(FP), F1
	0x0034 00052 (/Users/fpf/Downloads/go1.11.1/test/codegen/math.go:72)	MOVF	F0, math.f-44(SP)
	0x0038 00056 (/Users/fpf/Downloads/go1.11.1/test/codegen/math.go:72)	MOVF	F1, math.f-48(SP)
	0x003c 00060 (/Users/fpf/Downloads/go1.11.1/test/codegen/math.go:72)	MOVW	math.f-44(SP), R1
	0x0040 00064 (/Users/fpf/Downloads/go1.11.1/test/codegen/math.go:72)	MOVW	math.f-48(SP), R2
	0x0044 00068 (/Users/fpf/Downloads/go1.11.1/test/codegen/math.go:72)	MOVF	"".b+12(FP), F2
	0x0048 00072 (/Users/fpf/Downloads/go1.11.1/test/codegen/math.go:72)	MOVF	"".b+8(FP), F3
	0x004c 00076 (/Users/fpf/Downloads/go1.11.1/test/codegen/math.go:72)	MOVF	F2, math.f-52(SP)
	0x0050 00080 (/Users/fpf/Downloads/go1.11.1/test/codegen/math.go:72)	MOVF	F3, math.f-56(SP)
	0x0054 00084 (/Users/fpf/Downloads/go1.11.1/test/codegen/math.go:72)	MOVW	math.f-56(SP), R3
	0x0058 00088 (/Users/fpf/Downloads/go1.11.1/test/codegen/math.go:72)	SRL	$31, R3, R3
	0x005c 00092 (/Users/fpf/Downloads/go1.11.1/test/codegen/math.go:72)	SLL	$31, R3, R3
	0x0060 00096 (/Users/fpf/Downloads/go1.11.1/test/codegen/math.go:72)	SRL	$31, R1, R4
	0x0064 00100 (/Users/fpf/Downloads/go1.11.1/test/codegen/math.go:72)	SLL	$1, R2, R2
	0x0068 00104 (/Users/fpf/Downloads/go1.11.1/test/codegen/math.go:72)	OR	R4, R2, R2
	0x006c 00108 (/Users/fpf/Downloads/go1.11.1/test/codegen/math.go:72)	SRL	$1, R2, R4
	0x0070 00112 (/Users/fpf/Downloads/go1.11.1/test/codegen/math.go:72)	OR	R3, R4, R3
	0x0074 00116 (/Users/fpf/Downloads/go1.11.1/test/codegen/math.go:72)	MOVW	R3, math.b-32(SP)
	0x0078 00120 (/Users/fpf/Downloads/go1.11.1/test/codegen/math.go:72)	SLL	$1, R1, R1
	0x007c 00124 (/Users/fpf/Downloads/go1.11.1/test/codegen/math.go:72)	SRL	$1, R1, R1
	0x0080 00128 (/Users/fpf/Downloads/go1.11.1/test/codegen/math.go:72)	SLL	$31, R2, R2
	0x0084 00132 (/Users/fpf/Downloads/go1.11.1/test/codegen/math.go:72)	OR	R1, R2, R1
	0x0088 00136 (/Users/fpf/Downloads/go1.11.1/test/codegen/math.go:72)	MOVW	R1, math.b-28(SP)
	0x008c 00140 (/Users/fpf/Downloads/go1.11.1/test/codegen/math.go:72)	MOVF	math.b-28(SP), F2
	0x0090 00144 (/Users/fpf/Downloads/go1.11.1/test/codegen/math.go:72)	MOVF	math.b-32(SP), F3
	0x0094 00148 (/Users/fpf/Downloads/go1.11.1/test/codegen/math.go:72)	MOVF	F2, "".sink64+4(SB)
	0x009c 00156 (/Users/fpf/Downloads/go1.11.1/test/codegen/math.go:72)	MOVF	F3, "".sink64(SB)
	0x00a4 00164 (/Users/fpf/Downloads/go1.11.1/test/codegen/math.go:77)	MOVF	"".c+20(FP), F2
	0x00a8 00168 (/Users/fpf/Downloads/go1.11.1/test/codegen/math.go:77)	MOVF	"".c+16(FP), F3
	0x00ac 00172 (/Users/fpf/Downloads/go1.11.1/test/codegen/math.go:77)	MOVF	F2, math.f-36(SP)
	0x00b0 00176 (/Users/fpf/Downloads/go1.11.1/test/codegen/math.go:77)	MOVF	F3, math.f-40(SP)
	0x00b4 00180 (/Users/fpf/Downloads/go1.11.1/test/codegen/math.go:77)	MOVW	math.f-36(SP), R1
	0x00b8 00184 (/Users/fpf/Downloads/go1.11.1/test/codegen/math.go:77)	MOVW	math.f-40(SP), R2
	0x00bc 00188 (/Users/fpf/Downloads/go1.11.1/test/codegen/math.go:77)	SLL	$1, R2, R2
	0x00c0 00192 (/Users/fpf/Downloads/go1.11.1/test/codegen/math.go:77)	SRL	$31, R1, R3
	0x00c4 00196 (/Users/fpf/Downloads/go1.11.1/test/codegen/math.go:77)	OR	R3, R2, R2
	0x00c8 00200 (/Users/fpf/Downloads/go1.11.1/test/codegen/math.go:77)	SRL	$1, R2, R3
	0x00cc 00204 (/Users/fpf/Downloads/go1.11.1/test/codegen/math.go:77)	OR	$-2147483648, R3, R3
	0x00d4 00212 (/Users/fpf/Downloads/go1.11.1/test/codegen/math.go:77)	MOVW	R3, math.b-16(SP)
	0x00d8 00216 (/Users/fpf/Downloads/go1.11.1/test/codegen/math.go:77)	SLL	$1, R1, R1
	0x00dc 00220 (/Users/fpf/Downloads/go1.11.1/test/codegen/math.go:77)	SRL	$1, R1, R1
	0x00e0 00224 (/Users/fpf/Downloads/go1.11.1/test/codegen/math.go:77)	SLL	$31, R2, R2
	0x00e4 00228 (/Users/fpf/Downloads/go1.11.1/test/codegen/math.go:77)	OR	R1, R2, R1
	0x00e8 00232 (/Users/fpf/Downloads/go1.11.1/test/codegen/math.go:77)	MOVW	R1, math.b-12(SP)
	0x00ec 00236 (/Users/fpf/Downloads/go1.11.1/test/codegen/math.go:77)	MOVF	math.b-12(SP), F4
	0x00f0 00240 (/Users/fpf/Downloads/go1.11.1/test/codegen/math.go:77)	MOVF	math.b-16(SP), F5
	0x00f4 00244 (/Users/fpf/Downloads/go1.11.1/test/codegen/math.go:77)	MOVF	F4, "".sink64+12(SB)
	0x00fc 00252 (/Users/fpf/Downloads/go1.11.1/test/codegen/math.go:77)	MOVF	F5, "".sink64+8(SB)
	0x0104 00260 (/Users/fpf/Downloads/go1.11.1/test/codegen/math.go:82)	MOVF	F0, math.f-68(SP)
	0x0108 00264 (/Users/fpf/Downloads/go1.11.1/test/codegen/math.go:82)	MOVF	F1, math.f-72(SP)
	0x010c 00268 (/Users/fpf/Downloads/go1.11.1/test/codegen/math.go:82)	MOVW	math.f-68(SP), R1
	0x0110 00272 (/Users/fpf/Downloads/go1.11.1/test/codegen/math.go:82)	MOVW	math.f-72(SP), R2
	0x0114 00276 (/Users/fpf/Downloads/go1.11.1/test/codegen/math.go:82)	OR	$-2147483648, R2, R2
	0x011c 00284 (/Users/fpf/Downloads/go1.11.1/test/codegen/math.go:82)	MOVW	R2, math.b-24(SP)
	0x0120 00288 (/Users/fpf/Downloads/go1.11.1/test/codegen/math.go:82)	MOVW	R1, math.b-20(SP)
	0x0124 00292 (/Users/fpf/Downloads/go1.11.1/test/codegen/math.go:82)	MOVF	math.b-20(SP), F0
	0x0128 00296 (/Users/fpf/Downloads/go1.11.1/test/codegen/math.go:82)	MOVF	math.b-24(SP), F1
	0x012c 00300 (/Users/fpf/Downloads/go1.11.1/test/codegen/math.go:82)	MOVF	F0, "".sink64+20(SB)
	0x0134 00308 (/Users/fpf/Downloads/go1.11.1/test/codegen/math.go:82)	MOVF	F1, "".sink64+16(SB)
	0x013c 00316 (/Users/fpf/Downloads/go1.11.1/test/codegen/math.go:87)	MOVF	F2, math.f-60(SP)
	0x0140 00320 (/Users/fpf/Downloads/go1.11.1/test/codegen/math.go:87)	MOVF	F3, math.f-64(SP)
	0x0144 00324 (/Users/fpf/Downloads/go1.11.1/test/codegen/math.go:87)	MOVW	math.f-64(SP), R1
	0x0148 00328 (/Users/fpf/Downloads/go1.11.1/test/codegen/math.go:87)	SRL	$31, R1, R1
	0x014c 00332 (/Users/fpf/Downloads/go1.11.1/test/codegen/math.go:87)	SLL	$31, R1, R1
	0x0150 00336 (/Users/fpf/Downloads/go1.11.1/test/codegen/math.go:87)	OR	$1072693248, R1, R1
	0x0158 00344 (/Users/fpf/Downloads/go1.11.1/test/codegen/math.go:87)	MOVW	R1, math.b-8(SP)
	0x015c 00348 (/Users/fpf/Downloads/go1.11.1/test/codegen/math.go:87)	MOVW	R0, math.b-4(SP)
	0x0160 00352 (/Users/fpf/Downloads/go1.11.1/test/codegen/math.go:87)	MOVF	math.b-4(SP), F0
	0x0164 00356 (/Users/fpf/Downloads/go1.11.1/test/codegen/math.go:87)	MOVF	math.b-8(SP), F1
	0x0168 00360 (/Users/fpf/Downloads/go1.11.1/test/codegen/math.go:87)	MOVF	F0, "".sink64+28(SB)
	0x0170 00368 (/Users/fpf/Downloads/go1.11.1/test/codegen/math.go:87)	MOVF	F1, "".sink64+24(SB)
	0x0178 00376 (/Users/fpf/Downloads/go1.11.1/test/codegen/math.go:88)	ADDU	$76, R29
	0x017c 00380 (/Users/fpf/Downloads/go1.11.1/test/codegen/math.go:88)	JMP	(R31)
	0x0180 00384 (/Users/fpf/Downloads/go1.11.1/test/codegen/math.go:88)	NOOP
	0x0000 8f c1 00 08 00 3d 08 2b 14 20 00 06 00 00 00 00  .....=.+. ......
	0x0010 03 e0 18 25 0c 00 00 05 00 00 00 00 10 00 ff f8  ...%............
	0x0020 00 00 00 00 af bf ff b4 27 bd ff b4 c7 a0 00 54  ........'......T
	0x0030 c7 a1 00 50 e7 a0 00 20 e7 a1 00 1c 8f a1 00 20  ...P... ....... 
	0x0040 8f a2 00 1c c7 a2 00 5c c7 a3 00 58 e7 a2 00 18  .......\...X....
	0x0050 e7 a3 00 14 8f a3 00 14 00 03 1f c2 00 03 1f c0  ................
	0x0060 00 01 27 c2 00 02 10 40 00 44 10 25 00 02 20 42  ..'....@.D.%.. B
	0x0070 00 83 18 25 af a3 00 2c 00 01 08 40 00 01 08 42  ...%...,...@...B
	0x0080 00 02 17 c0 00 41 08 25 af a1 00 30 c7 a2 00 30  .....A.%...0...0
	0x0090 c7 a3 00 2c 3c 17 00 00 e6 e2 00 00 3c 17 00 00  ...,<.......<...
	0x00a0 e6 e3 00 00 c7 a2 00 64 c7 a3 00 60 e7 a2 00 28  .......d...`...(
	0x00b0 e7 a3 00 24 8f a1 00 28 8f a2 00 24 00 02 10 40  ...$...(...$...@
	0x00c0 00 01 1f c2 00 43 10 25 00 02 18 42 3c 17 80 00  .....C.%...B<...
	0x00d0 00 77 18 25 af a3 00 3c 00 01 08 40 00 01 08 42  .w.%...<...@...B
	0x00e0 00 02 17 c0 00 41 08 25 af a1 00 40 c7 a4 00 40  .....A.%...@...@
	0x00f0 c7 a5 00 3c 3c 17 00 00 e6 e4 00 00 3c 17 00 00  ...<<.......<...
	0x0100 e6 e5 00 00 e7 a0 00 08 e7 a1 00 04 8f a1 00 08  ................
	0x0110 8f a2 00 04 3c 17 80 00 00 57 10 25 af a2 00 34  ....<....W.%...4
	0x0120 af a1 00 38 c7 a0 00 38 c7 a1 00 34 3c 17 00 00  ...8...8...4<...
	0x0130 e6 e0 00 00 3c 17 00 00 e6 e1 00 00 e7 a2 00 10  ....<...........
	0x0140 e7 a3 00 0c 8f a1 00 0c 00 01 0f c2 00 01 0f c0  ................
	0x0150 3c 17 3f f0 00 37 08 25 af a1 00 44 af a0 00 48  <.?..7.%...D...H
	0x0160 c7 a0 00 48 c7 a1 00 44 3c 17 00 00 e6 e0 00 00  ...H...D<.......
	0x0170 3c 17 00 00 e6 e1 00 00 27 bd 00 4c 03 e0 00 08  <.......'..L....
	0x0180 00 00 00 00                                      ....
	rel 20+4 t=13 runtime.morestack_noctxt+0
	rel 148+4 t=42 "".sink64+4
	rel 152+4 t=4 "".sink64+4
	rel 156+4 t=42 "".sink64+0
	rel 160+4 t=4 "".sink64+0
	rel 244+4 t=42 "".sink64+12
	rel 248+4 t=4 "".sink64+12
	rel 252+4 t=42 "".sink64+8
	rel 256+4 t=4 "".sink64+8
	rel 300+4 t=42 "".sink64+20
	rel 304+4 t=4 "".sink64+20
	rel 308+4 t=42 "".sink64+16
	rel 312+4 t=4 "".sink64+16
	rel 360+4 t=42 "".sink64+28
	rel 364+4 t=4 "".sink64+28
	rel 368+4 t=42 "".sink64+24
	rel 372+4 t=4 "".sink64+24
	rel 380+0 t=11 +0
"".fromFloat64 STEXT size=120 args=0x10 locals=0x8 leaf
	0x0000 00000 (/Users/fpf/Downloads/go1.11.1/test/codegen/math.go:90)	TEXT	"".fromFloat64(SB), LEAF, $8-16
	0x0000 00000 (/Users/fpf/Downloads/go1.11.1/test/codegen/math.go:90)	MOVW	8(g), R1
	0x0004 00004 (/Users/fpf/Downloads/go1.11.1/test/codegen/math.go:90)	SGTU	R29, R1, R1
	0x0008 00008 (/Users/fpf/Downloads/go1.11.1/test/codegen/math.go:90)	BNE	R1, 36
	0x000c 00012 (/Users/fpf/Downloads/go1.11.1/test/codegen/math.go:90)	NOOP
	0x0010 00016 (/Users/fpf/Downloads/go1.11.1/test/codegen/math.go:90)	MOVW	R31, R3
	0x0014 00020 (/Users/fpf/Downloads/go1.11.1/test/codegen/math.go:90)	PCDATA	$0, $-1
	0x0014 00020 (/Users/fpf/Downloads/go1.11.1/test/codegen/math.go:90)	PCDATA	$2, $-1
	0x0014 00020 (/Users/fpf/Downloads/go1.11.1/test/codegen/math.go:90)	CALL	runtime.morestack_noctxt(SB)
	0x0018 00024 (/Users/fpf/Downloads/go1.11.1/test/codegen/math.go:90)	NOOP
	0x001c 00028 (/Users/fpf/Downloads/go1.11.1/test/codegen/math.go:90)	JMP	0
	0x0020 00032 (/Users/fpf/Downloads/go1.11.1/test/codegen/math.go:90)	NOOP
	0x0024 00036 (/Users/fpf/Downloads/go1.11.1/test/codegen/math.go:90)	NOP
	0x0024 00036 (/Users/fpf/Downloads/go1.11.1/test/codegen/math.go:90)	MOVW	R31, -12(R29)
	0x0028 00040 (/Users/fpf/Downloads/go1.11.1/test/codegen/math.go:90)	ADDU	$-12, R29
	0x002c 00044 (/Users/fpf/Downloads/go1.11.1/test/codegen/math.go:90)	FUNCDATA	$0, gclocals·2002e13acf59079a1a5782c918894579(SB)
	0x002c 00044 (/Users/fpf/Downloads/go1.11.1/test/codegen/math.go:90)	FUNCDATA	$1, gclocals·2002e13acf59079a1a5782c918894579(SB)
	0x002c 00044 (/Users/fpf/Downloads/go1.11.1/test/codegen/math.go:90)	FUNCDATA	$3, gclocals·2002e13acf59079a1a5782c918894579(SB)
	0x002c 00044 (/Users/fpf/Downloads/go1.11.1/test/codegen/math.go:92)	PCDATA	$2, $0
	0x002c 00044 (/Users/fpf/Downloads/go1.11.1/test/codegen/math.go:92)	PCDATA	$0, $0
	0x002c 00044 (/Users/fpf/Downloads/go1.11.1/test/codegen/math.go:92)	MOVF	"".f64+4(FP), F0
	0x0030 00048 (/Users/fpf/Downloads/go1.11.1/test/codegen/math.go:92)	MOVF	"".f64(FP), F1
	0x0034 00052 (/Users/fpf/Downloads/go1.11.1/test/codegen/math.go:92)	MOVF	$f64.3ff0000000000000+4(SB), F2
	0x003c 00060 (/Users/fpf/Downloads/go1.11.1/test/codegen/math.go:92)	MOVF	$f64.3ff0000000000000(SB), F3
	0x0044 00068 (/Users/fpf/Downloads/go1.11.1/test/codegen/math.go:92)	ADDD	F2, F0, F0
	0x0048 00072 (/Users/fpf/Downloads/go1.11.1/test/codegen/math.go:92)	MOVF	F0, math.f-4(SP)
	0x004c 00076 (/Users/fpf/Downloads/go1.11.1/test/codegen/math.go:92)	MOVF	F1, math.f-8(SP)
	0x0050 00080 (/Users/fpf/Downloads/go1.11.1/test/codegen/math.go:92)	MOVW	math.f-8(SP), R1
	0x0054 00084 (/Users/fpf/Downloads/go1.11.1/test/codegen/math.go:92)	MOVW	math.f-4(SP), R2
	0x0058 00088 (/Users/fpf/Downloads/go1.11.1/test/codegen/math.go:92)	ADDU	$1, R2, R3
	0x005c 00092 (/Users/fpf/Downloads/go1.11.1/test/codegen/math.go:92)	SGTU	R2, R3, R2
	0x0060 00096 (/Users/fpf/Downloads/go1.11.1/test/codegen/math.go:92)	ADDU	R1, R2, R1
	0x0064 00100 (/Users/fpf/Downloads/go1.11.1/test/codegen/math.go:92)	MOVW	R1, "".~r1+8(FP)
	0x0068 00104 (/Users/fpf/Downloads/go1.11.1/test/codegen/math.go:92)	MOVW	R3, "".~r1+12(FP)
	0x006c 00108 (/Users/fpf/Downloads/go1.11.1/test/codegen/math.go:92)	ADDU	$12, R29
	0x0070 00112 (/Users/fpf/Downloads/go1.11.1/test/codegen/math.go:92)	JMP	(R31)
	0x0074 00116 (/Users/fpf/Downloads/go1.11.1/test/codegen/math.go:92)	NOOP
	0x0000 8f c1 00 08 00 3d 08 2b 14 20 00 06 00 00 00 00  .....=.+. ......
	0x0010 03 e0 18 25 0c 00 00 05 00 00 00 00 10 00 ff f8  ...%............
	0x0020 00 00 00 00 af bf ff f4 27 bd ff f4 c7 a0 00 14  ........'.......
	0x0030 c7 a1 00 10 3c 17 00 00 c6 e2 00 00 3c 17 00 00  ....<.......<...
	0x0040 c6 e3 00 00 46 22 00 00 e7 a0 00 08 e7 a1 00 04  ....F"..........
	0x0050 8f a1 00 04 8f a2 00 08 24 43 00 01 00 62 10 2b  ........$C...b.+
	0x0060 00 41 08 21 af a1 00 18 af a3 00 1c 27 bd 00 0c  .A.!........'...
	0x0070 03 e0 00 08 00 00 00 00                          ........
	rel 20+4 t=13 runtime.morestack_noctxt+0
	rel 52+4 t=42 $f64.3ff0000000000000+4
	rel 56+4 t=4 $f64.3ff0000000000000+4
	rel 60+4 t=42 $f64.3ff0000000000000+0
	rel 64+4 t=4 $f64.3ff0000000000000+0
	rel 112+0 t=11 +0
"".fromFloat32 STEXT size=88 args=0x8 locals=0x4 leaf
	0x0000 00000 (/Users/fpf/Downloads/go1.11.1/test/codegen/math.go:95)	TEXT	"".fromFloat32(SB), LEAF, $4-8
	0x0000 00000 (/Users/fpf/Downloads/go1.11.1/test/codegen/math.go:95)	MOVW	8(g), R1
	0x0004 00004 (/Users/fpf/Downloads/go1.11.1/test/codegen/math.go:95)	SGTU	R29, R1, R1
	0x0008 00008 (/Users/fpf/Downloads/go1.11.1/test/codegen/math.go:95)	BNE	R1, 36
	0x000c 00012 (/Users/fpf/Downloads/go1.11.1/test/codegen/math.go:95)	NOOP
	0x0010 00016 (/Users/fpf/Downloads/go1.11.1/test/codegen/math.go:95)	MOVW	R31, R3
	0x0014 00020 (/Users/fpf/Downloads/go1.11.1/test/codegen/math.go:95)	PCDATA	$0, $-1
	0x0014 00020 (/Users/fpf/Downloads/go1.11.1/test/codegen/math.go:95)	PCDATA	$2, $-1
	0x0014 00020 (/Users/fpf/Downloads/go1.11.1/test/codegen/math.go:95)	CALL	runtime.morestack_noctxt(SB)
	0x0018 00024 (/Users/fpf/Downloads/go1.11.1/test/codegen/math.go:95)	NOOP
	0x001c 00028 (/Users/fpf/Downloads/go1.11.1/test/codegen/math.go:95)	JMP	0
	0x0020 00032 (/Users/fpf/Downloads/go1.11.1/test/codegen/math.go:95)	NOOP
	0x0024 00036 (/Users/fpf/Downloads/go1.11.1/test/codegen/math.go:95)	NOP
	0x0024 00036 (/Users/fpf/Downloads/go1.11.1/test/codegen/math.go:95)	MOVW	R31, -8(R29)
	0x0028 00040 (/Users/fpf/Downloads/go1.11.1/test/codegen/math.go:95)	ADDU	$-8, R29
	0x002c 00044 (/Users/fpf/Downloads/go1.11.1/test/codegen/math.go:95)	FUNCDATA	$0, gclocals·2002e13acf59079a1a5782c918894579(SB)
	0x002c 00044 (/Users/fpf/Downloads/go1.11.1/test/codegen/math.go:95)	FUNCDATA	$1, gclocals·2002e13acf59079a1a5782c918894579(SB)
	0x002c 00044 (/Users/fpf/Downloads/go1.11.1/test/codegen/math.go:95)	FUNCDATA	$3, gclocals·2002e13acf59079a1a5782c918894579(SB)
	0x002c 00044 (/Users/fpf/Downloads/go1.11.1/test/codegen/math.go:97)	PCDATA	$2, $0
	0x002c 00044 (/Users/fpf/Downloads/go1.11.1/test/codegen/math.go:97)	PCDATA	$0, $0
	0x002c 00044 (/Users/fpf/Downloads/go1.11.1/test/codegen/math.go:97)	MOVF	"".f32(FP), F0
	0x0030 00048 (/Users/fpf/Downloads/go1.11.1/test/codegen/math.go:97)	MOVF	$f32.3f800000(SB), F2
	0x0038 00056 (/Users/fpf/Downloads/go1.11.1/test/codegen/math.go:97)	ADDF	F2, F0, F0
	0x003c 00060 (/Users/fpf/Downloads/go1.11.1/test/codegen/math.go:97)	MOVF	F0, math.f-4(SP)
	0x0040 00064 (/Users/fpf/Downloads/go1.11.1/test/codegen/math.go:97)	MOVW	math.f-4(SP), R1
	0x0044 00068 (/Users/fpf/Downloads/go1.11.1/test/codegen/math.go:97)	ADDU	$1, R1, R1
	0x0048 00072 (/Users/fpf/Downloads/go1.11.1/test/codegen/math.go:97)	MOVW	R1, "".~r1+4(FP)
	0x004c 00076 (/Users/fpf/Downloads/go1.11.1/test/codegen/math.go:97)	ADDU	$8, R29
	0x0050 00080 (/Users/fpf/Downloads/go1.11.1/test/codegen/math.go:97)	JMP	(R31)
	0x0054 00084 (/Users/fpf/Downloads/go1.11.1/test/codegen/math.go:97)	NOOP
	0x0000 8f c1 00 08 00 3d 08 2b 14 20 00 06 00 00 00 00  .....=.+. ......
	0x0010 03 e0 18 25 0c 00 00 05 00 00 00 00 10 00 ff f8  ...%............
	0x0020 00 00 00 00 af bf ff f8 27 bd ff f8 c7 a0 00 0c  ........'.......
	0x0030 3c 17 00 00 c6 e2 00 00 46 02 00 00 e7 a0 00 04  <.......F.......
	0x0040 8f a1 00 04 24 21 00 01 af a1 00 10 27 bd 00 08  ....$!......'...
	0x0050 03 e0 00 08 00 00 00 00                          ........
	rel 20+4 t=13 runtime.morestack_noctxt+0
	rel 48+4 t=42 $f32.3f800000+0
	rel 52+4 t=4 $f32.3f800000+0
	rel 80+0 t=11 +0
"".toFloat64 STEXT size=120 args=0x10 locals=0x8 leaf
	0x0000 00000 (/Users/fpf/Downloads/go1.11.1/test/codegen/math.go:100)	TEXT	"".toFloat64(SB), LEAF, $8-16
	0x0000 00000 (/Users/fpf/Downloads/go1.11.1/test/codegen/math.go:100)	MOVW	8(g), R1
	0x0004 00004 (/Users/fpf/Downloads/go1.11.1/test/codegen/math.go:100)	SGTU	R29, R1, R1
	0x0008 00008 (/Users/fpf/Downloads/go1.11.1/test/codegen/math.go:100)	BNE	R1, 36
	0x000c 00012 (/Users/fpf/Downloads/go1.11.1/test/codegen/math.go:100)	NOOP
	0x0010 00016 (/Users/fpf/Downloads/go1.11.1/test/codegen/math.go:100)	MOVW	R31, R3
	0x0014 00020 (/Users/fpf/Downloads/go1.11.1/test/codegen/math.go:100)	PCDATA	$0, $-1
	0x0014 00020 (/Users/fpf/Downloads/go1.11.1/test/codegen/math.go:100)	PCDATA	$2, $-1
	0x0014 00020 (/Users/fpf/Downloads/go1.11.1/test/codegen/math.go:100)	CALL	runtime.morestack_noctxt(SB)
	0x0018 00024 (/Users/fpf/Downloads/go1.11.1/test/codegen/math.go:100)	NOOP
	0x001c 00028 (/Users/fpf/Downloads/go1.11.1/test/codegen/math.go:100)	JMP	0
	0x0020 00032 (/Users/fpf/Downloads/go1.11.1/test/codegen/math.go:100)	NOOP
	0x0024 00036 (/Users/fpf/Downloads/go1.11.1/test/codegen/math.go:100)	NOP
	0x0024 00036 (/Users/fpf/Downloads/go1.11.1/test/codegen/math.go:100)	MOVW	R31, -12(R29)
	0x0028 00040 (/Users/fpf/Downloads/go1.11.1/test/codegen/math.go:100)	ADDU	$-12, R29
	0x002c 00044 (/Users/fpf/Downloads/go1.11.1/test/codegen/math.go:100)	FUNCDATA	$0, gclocals·2002e13acf59079a1a5782c918894579(SB)
	0x002c 00044 (/Users/fpf/Downloads/go1.11.1/test/codegen/math.go:100)	FUNCDATA	$1, gclocals·2002e13acf59079a1a5782c918894579(SB)
	0x002c 00044 (/Users/fpf/Downloads/go1.11.1/test/codegen/math.go:100)	FUNCDATA	$3, gclocals·2002e13acf59079a1a5782c918894579(SB)
	0x002c 00044 (/Users/fpf/Downloads/go1.11.1/test/codegen/math.go:102)	PCDATA	$2, $0
	0x002c 00044 (/Users/fpf/Downloads/go1.11.1/test/codegen/math.go:102)	PCDATA	$0, $0
	0x002c 00044 (/Users/fpf/Downloads/go1.11.1/test/codegen/math.go:102)	MOVW	"".u64+4(FP), R1
	0x0030 00048 (/Users/fpf/Downloads/go1.11.1/test/codegen/math.go:102)	ADDU	$1, R1, R2
	0x0034 00052 (/Users/fpf/Downloads/go1.11.1/test/codegen/math.go:102)	SGTU	R1, R2, R1
	0x0038 00056 (/Users/fpf/Downloads/go1.11.1/test/codegen/math.go:102)	MOVW	"".u64(FP), R3
	0x003c 00060 (/Users/fpf/Downloads/go1.11.1/test/codegen/math.go:102)	ADDU	R3, R1, R1
	0x0040 00064 (/Users/fpf/Downloads/go1.11.1/test/codegen/math.go:102)	MOVW	R1, math.b-8(SP)
	0x0044 00068 (/Users/fpf/Downloads/go1.11.1/test/codegen/math.go:102)	MOVW	R2, math.b-4(SP)
	0x0048 00072 (/Users/fpf/Downloads/go1.11.1/test/codegen/math.go:102)	MOVF	math.b-4(SP), F0
	0x004c 00076 (/Users/fpf/Downloads/go1.11.1/test/codegen/math.go:102)	MOVF	math.b-8(SP), F1
	0x0050 00080 (/Users/fpf/Downloads/go1.11.1/test/codegen/math.go:102)	MOVF	$f64.3ff0000000000000+4(SB), F2
	0x0058 00088 (/Users/fpf/Downloads/go1.11.1/test/codegen/math.go:102)	MOVF	$f64.3ff0000000000000(SB), F3
	0x0060 00096 (/Users/fpf/Downloads/go1.11.1/test/codegen/math.go:102)	ADDD	F2, F0, F0
	0x0064 00100 (/Users/fpf/Downloads/go1.11.1/test/codegen/math.go:102)	MOVF	F0, "".~r1+12(FP)
	0x0068 00104 (/Users/fpf/Downloads/go1.11.1/test/codegen/math.go:102)	MOVF	F1, "".~r1+8(FP)
	0x006c 00108 (/Users/fpf/Downloads/go1.11.1/test/codegen/math.go:102)	ADDU	$12, R29
	0x0070 00112 (/Users/fpf/Downloads/go1.11.1/test/codegen/math.go:102)	JMP	(R31)
	0x0074 00116 (/Users/fpf/Downloads/go1.11.1/test/codegen/math.go:102)	NOOP
	0x0000 8f c1 00 08 00 3d 08 2b 14 20 00 06 00 00 00 00  .....=.+. ......
	0x0010 03 e0 18 25 0c 00 00 05 00 00 00 00 10 00 ff f8  ...%............
	0x0020 00 00 00 00 af bf ff f4 27 bd ff f4 8f a1 00 14  ........'.......
	0x0030 24 22 00 01 00 41 08 2b 8f a3 00 10 00 23 08 21  $"...A.+.....#.!
	0x0040 af a1 00 04 af a2 00 08 c7 a0 00 08 c7 a1 00 04  ................
	0x0050 3c 17 00 00 c6 e2 00 00 3c 17 00 00 c6 e3 00 00  <.......<.......
	0x0060 46 22 00 00 e7 a0 00 1c e7 a1 00 18 27 bd 00 0c  F"..........'...
	0x0070 03 e0 00 08 00 00 00 00                          ........
	rel 20+4 t=13 runtime.morestack_noctxt+0
	rel 80+4 t=42 $f64.3ff0000000000000+4
	rel 84+4 t=4 $f64.3ff0000000000000+4
	rel 88+4 t=42 $f64.3ff0000000000000+0
	rel 92+4 t=4 $f64.3ff0000000000000+0
	rel 112+0 t=11 +0
"".toFloat32 STEXT size=88 args=0x8 locals=0x4 leaf
	0x0000 00000 (/Users/fpf/Downloads/go1.11.1/test/codegen/math.go:105)	TEXT	"".toFloat32(SB), LEAF, $4-8
	0x0000 00000 (/Users/fpf/Downloads/go1.11.1/test/codegen/math.go:105)	MOVW	8(g), R1
	0x0004 00004 (/Users/fpf/Downloads/go1.11.1/test/codegen/math.go:105)	SGTU	R29, R1, R1
	0x0008 00008 (/Users/fpf/Downloads/go1.11.1/test/codegen/math.go:105)	BNE	R1, 36
	0x000c 00012 (/Users/fpf/Downloads/go1.11.1/test/codegen/math.go:105)	NOOP
	0x0010 00016 (/Users/fpf/Downloads/go1.11.1/test/codegen/math.go:105)	MOVW	R31, R3
	0x0014 00020 (/Users/fpf/Downloads/go1.11.1/test/codegen/math.go:105)	PCDATA	$0, $-1
	0x0014 00020 (/Users/fpf/Downloads/go1.11.1/test/codegen/math.go:105)	PCDATA	$2, $-1
	0x0014 00020 (/Users/fpf/Downloads/go1.11.1/test/codegen/math.go:105)	CALL	runtime.morestack_noctxt(SB)
	0x0018 00024 (/Users/fpf/Downloads/go1.11.1/test/codegen/math.go:105)	NOOP
	0x001c 00028 (/Users/fpf/Downloads/go1.11.1/test/codegen/math.go:105)	JMP	0
	0x0020 00032 (/Users/fpf/Downloads/go1.11.1/test/codegen/math.go:105)	NOOP
	0x0024 00036 (/Users/fpf/Downloads/go1.11.1/test/codegen/math.go:105)	NOP
	0x0024 00036 (/Users/fpf/Downloads/go1.11.1/test/codegen/math.go:105)	MOVW	R31, -8(R29)
	0x0028 00040 (/Users/fpf/Downloads/go1.11.1/test/codegen/math.go:105)	ADDU	$-8, R29
	0x002c 00044 (/Users/fpf/Downloads/go1.11.1/test/codegen/math.go:105)	FUNCDATA	$0, gclocals·2002e13acf59079a1a5782c918894579(SB)
	0x002c 00044 (/Users/fpf/Downloads/go1.11.1/test/codegen/math.go:105)	FUNCDATA	$1, gclocals·2002e13acf59079a1a5782c918894579(SB)
	0x002c 00044 (/Users/fpf/Downloads/go1.11.1/test/codegen/math.go:105)	FUNCDATA	$3, gclocals·2002e13acf59079a1a5782c918894579(SB)
	0x002c 00044 (/Users/fpf/Downloads/go1.11.1/test/codegen/math.go:107)	PCDATA	$2, $0
	0x002c 00044 (/Users/fpf/Downloads/go1.11.1/test/codegen/math.go:107)	PCDATA	$0, $0
	0x002c 00044 (/Users/fpf/Downloads/go1.11.1/test/codegen/math.go:107)	MOVW	"".u32(FP), R1
	0x0030 00048 (/Users/fpf/Downloads/go1.11.1/test/codegen/math.go:107)	ADDU	$1, R1, R1
	0x0034 00052 (/Users/fpf/Downloads/go1.11.1/test/codegen/math.go:107)	MOVW	R1, math.b-4(SP)
	0x0038 00056 (/Users/fpf/Downloads/go1.11.1/test/codegen/math.go:107)	MOVF	math.b-4(SP), F0
	0x003c 00060 (/Users/fpf/Downloads/go1.11.1/test/codegen/math.go:107)	MOVF	$f32.3f800000(SB), F2
	0x0044 00068 (/Users/fpf/Downloads/go1.11.1/test/codegen/math.go:107)	ADDF	F2, F0, F0
	0x0048 00072 (/Users/fpf/Downloads/go1.11.1/test/codegen/math.go:107)	MOVF	F0, "".~r1+4(FP)
	0x004c 00076 (/Users/fpf/Downloads/go1.11.1/test/codegen/math.go:107)	ADDU	$8, R29
	0x0050 00080 (/Users/fpf/Downloads/go1.11.1/test/codegen/math.go:107)	JMP	(R31)
	0x0054 00084 (/Users/fpf/Downloads/go1.11.1/test/codegen/math.go:107)	NOOP
	0x0000 8f c1 00 08 00 3d 08 2b 14 20 00 06 00 00 00 00  .....=.+. ......
	0x0010 03 e0 18 25 0c 00 00 05 00 00 00 00 10 00 ff f8  ...%............
	0x0020 00 00 00 00 af bf ff f8 27 bd ff f8 8f a1 00 0c  ........'.......
	0x0030 24 21 00 01 af a1 00 04 c7 a0 00 04 3c 17 00 00  $!..........<...
	0x0040 c6 e2 00 00 46 02 00 00 e7 a0 00 10 27 bd 00 08  ....F.......'...
	0x0050 03 e0 00 08 00 00 00 00                          ........
	rel 20+4 t=13 runtime.morestack_noctxt+0
	rel 60+4 t=42 $f32.3f800000+0
	rel 64+4 t=4 $f32.3f800000+0
	rel 80+0 t=11 +0
"".constantCheck64 STEXT size=12 args=0x4 locals=0x0 leaf
	0x0000 00000 (/Users/fpf/Downloads/go1.11.1/test/codegen/math.go:113)	TEXT	"".constantCheck64(SB), LEAF|NOFRAME, $-4-4
	0x0000 00000 (/Users/fpf/Downloads/go1.11.1/test/codegen/math.go:113)	FUNCDATA	$0, gclocals·2002e13acf59079a1a5782c918894579(SB)
	0x0000 00000 (/Users/fpf/Downloads/go1.11.1/test/codegen/math.go:113)	FUNCDATA	$1, gclocals·2002e13acf59079a1a5782c918894579(SB)
	0x0000 00000 (/Users/fpf/Downloads/go1.11.1/test/codegen/math.go:113)	FUNCDATA	$3, gclocals·2002e13acf59079a1a5782c918894579(SB)
	0x0000 00000 (/Users/fpf/Downloads/go1.11.1/test/codegen/math.go:116)	PCDATA	$2, $0
	0x0000 00000 (/Users/fpf/Downloads/go1.11.1/test/codegen/math.go:116)	PCDATA	$0, $0
	0x0000 00000 (/Users/fpf/Downloads/go1.11.1/test/codegen/math.go:116)	MOVB	R0, "".~r0(FP)
	0x0004 00004 (/Users/fpf/Downloads/go1.11.1/test/codegen/math.go:116)	JMP	(R31)
	0x0008 00008 (/Users/fpf/Downloads/go1.11.1/test/codegen/math.go:116)	NOOP
	0x0000 a3 a0 00 04 03 e0 00 08 00 00 00 00              ............
	rel 4+0 t=11 +0
"".constantCheck32 STEXT size=16 args=0x4 locals=0x0 leaf
	0x0000 00000 (/Users/fpf/Downloads/go1.11.1/test/codegen/math.go:119)	TEXT	"".constantCheck32(SB), LEAF|NOFRAME, $-4-4
	0x0000 00000 (/Users/fpf/Downloads/go1.11.1/test/codegen/math.go:119)	FUNCDATA	$0, gclocals·2002e13acf59079a1a5782c918894579(SB)
	0x0000 00000 (/Users/fpf/Downloads/go1.11.1/test/codegen/math.go:119)	FUNCDATA	$1, gclocals·2002e13acf59079a1a5782c918894579(SB)
	0x0000 00000 (/Users/fpf/Downloads/go1.11.1/test/codegen/math.go:119)	FUNCDATA	$3, gclocals·2002e13acf59079a1a5782c918894579(SB)
	0x0000 00000 (/Users/fpf/Downloads/go1.11.1/test/codegen/math.go:122)	PCDATA	$2, $0
	0x0000 00000 (/Users/fpf/Downloads/go1.11.1/test/codegen/math.go:122)	PCDATA	$0, $0
	0x0000 00000 (/Users/fpf/Downloads/go1.11.1/test/codegen/math.go:122)	MOVW	$1, R1
	0x0004 00004 (/Users/fpf/Downloads/go1.11.1/test/codegen/math.go:122)	MOVB	R1, "".~r0(FP)
	0x0008 00008 (/Users/fpf/Downloads/go1.11.1/test/codegen/math.go:122)	JMP	(R31)
	0x000c 00012 (/Users/fpf/Downloads/go1.11.1/test/codegen/math.go:122)	NOOP
	0x0000 24 01 00 01 a3 a1 00 04 03 e0 00 08 00 00 00 00  $...............
	rel 8+0 t=11 +0
"".constantConvert32 STEXT size=52 args=0x8 locals=0x0 leaf
	0x0000 00000 (/Users/fpf/Downloads/go1.11.1/test/codegen/math.go:128)	TEXT	"".constantConvert32(SB), LEAF|NOFRAME, $-4-8
	0x0000 00000 (/Users/fpf/Downloads/go1.11.1/test/codegen/math.go:128)	FUNCDATA	$0, gclocals·2002e13acf59079a1a5782c918894579(SB)
	0x0000 00000 (/Users/fpf/Downloads/go1.11.1/test/codegen/math.go:128)	FUNCDATA	$1, gclocals·2002e13acf59079a1a5782c918894579(SB)
	0x0000 00000 (/Users/fpf/Downloads/go1.11.1/test/codegen/math.go:128)	FUNCDATA	$3, gclocals·2002e13acf59079a1a5782c918894579(SB)
	0x0000 00000 (/Users/fpf/Downloads/go1.11.1/test/codegen/math.go:132)	PCDATA	$2, $0
	0x0000 00000 (/Users/fpf/Downloads/go1.11.1/test/codegen/math.go:132)	PCDATA	$0, $0
	0x0000 00000 (/Users/fpf/Downloads/go1.11.1/test/codegen/math.go:132)	MOVF	"".x(FP), F0
	0x0004 00004 (/Users/fpf/Downloads/go1.11.1/test/codegen/math.go:132)	MOVF	$f32.3f800000(SB), F2
	0x000c 00012 (/Users/fpf/Downloads/go1.11.1/test/codegen/math.go:132)	CMPGTF	F0, F2
	0x0010 00016 (/Users/fpf/Downloads/go1.11.1/test/codegen/math.go:132)	BFPF	40
	0x0018 00024 (/Users/fpf/Downloads/go1.11.1/test/codegen/math.go:133)	NEGF	F0, F0
	0x001c 00028 (/Users/fpf/Downloads/go1.11.1/test/codegen/math.go:133)	MOVF	F0, "".~r1+4(FP)
	0x0020 00032 (/Users/fpf/Downloads/go1.11.1/test/codegen/math.go:133)	JMP	(R31)
	0x0024 00036 (/Users/fpf/Downloads/go1.11.1/test/codegen/math.go:133)	NOOP
	0x0028 00040 (/Users/fpf/Downloads/go1.11.1/test/codegen/math.go:135)	MOVF	F0, "".~r1+4(FP)
	0x002c 00044 (/Users/fpf/Downloads/go1.11.1/test/codegen/math.go:135)	JMP	(R31)
	0x0030 00048 (/Users/fpf/Downloads/go1.11.1/test/codegen/math.go:135)	NOOP
	0x0000 c7 a0 00 04 3c 17 00 00 c6 e2 00 00 46 00 10 3c  ....<.......F..<
	0x0010 45 00 00 05 00 00 00 00 46 00 00 07 e7 a0 00 08  E.......F.......
	0x0020 03 e0 00 08 00 00 00 00 e7 a0 00 08 03 e0 00 08  ................
	0x0030 00 00 00 00                                      ....
	rel 4+4 t=42 $f32.3f800000+0
	rel 8+4 t=4 $f32.3f800000+0
	rel 32+0 t=11 +0
	rel 44+0 t=11 +0
"".constantConvertInt32 STEXT size=48 args=0x8 locals=0x0 leaf
	0x0000 00000 (/Users/fpf/Downloads/go1.11.1/test/codegen/math.go:138)	TEXT	"".constantConvertInt32(SB), LEAF|NOFRAME, $-4-8
	0x0000 00000 (/Users/fpf/Downloads/go1.11.1/test/codegen/math.go:138)	FUNCDATA	$0, gclocals·2002e13acf59079a1a5782c918894579(SB)
	0x0000 00000 (/Users/fpf/Downloads/go1.11.1/test/codegen/math.go:138)	FUNCDATA	$1, gclocals·2002e13acf59079a1a5782c918894579(SB)
	0x0000 00000 (/Users/fpf/Downloads/go1.11.1/test/codegen/math.go:138)	FUNCDATA	$3, gclocals·2002e13acf59079a1a5782c918894579(SB)
	0x0000 00000 (/Users/fpf/Downloads/go1.11.1/test/codegen/math.go:142)	PCDATA	$2, $0
	0x0000 00000 (/Users/fpf/Downloads/go1.11.1/test/codegen/math.go:142)	PCDATA	$0, $0
	0x0000 00000 (/Users/fpf/Downloads/go1.11.1/test/codegen/math.go:142)	MOVW	"".x(FP), R1
	0x0004 00004 (/Users/fpf/Downloads/go1.11.1/test/codegen/math.go:142)	MOVW	$1065353216, R2
	0x0008 00008 (/Users/fpf/Downloads/go1.11.1/test/codegen/math.go:142)	SGTU	R1, R2, R2
	0x000c 00012 (/Users/fpf/Downloads/go1.11.1/test/codegen/math.go:142)	BEQ	R2, 36
	0x0010 00016 (/Users/fpf/Downloads/go1.11.1/test/codegen/math.go:142)	NOOP
	0x0014 00020 (/Users/fpf/Downloads/go1.11.1/test/codegen/math.go:143)	SUBU	R1, R0, R1
	0x0018 00024 (/Users/fpf/Downloads/go1.11.1/test/codegen/math.go:143)	MOVW	R1, "".~r1+4(FP)
	0x001c 00028 (/Users/fpf/Downloads/go1.11.1/test/codegen/math.go:143)	JMP	(R31)
	0x0020 00032 (/Users/fpf/Downloads/go1.11.1/test/codegen/math.go:143)	NOOP
	0x0024 00036 (/Users/fpf/Downloads/go1.11.1/test/codegen/math.go:145)	MOVW	R1, "".~r1+4(FP)
	0x0028 00040 (/Users/fpf/Downloads/go1.11.1/test/codegen/math.go:145)	JMP	(R31)
	0x002c 00044 (/Users/fpf/Downloads/go1.11.1/test/codegen/math.go:145)	NOOP
	0x0000 8f a1 00 04 3c 02 3f 80 00 41 10 2b 10 40 00 05  ....<.?..A.+.@..
	0x0010 00 00 00 00 00 01 08 23 af a1 00 08 03 e0 00 08  .......#........
	0x0020 00 00 00 00 af a1 00 08 03 e0 00 08 00 00 00 00  ................
	rel 28+0 t=11 +0
	rel 40+0 t=11 +0
type..hash.[8]float64 STEXT dupok size=136 args=0xc locals=0x10
	0x0000 00000 (<autogenerated>:1)	TEXT	type..hash.[8]float64(SB), DUPOK, $16-12
	0x0000 00000 (<autogenerated>:1)	MOVW	8(g), R1
	0x0004 00004 (<autogenerated>:1)	SGTU	R29, R1, R1
	0x0008 00008 (<autogenerated>:1)	BNE	R1, 36
	0x000c 00012 (<autogenerated>:1)	NOOP
	0x0010 00016 (<autogenerated>:1)	MOVW	R31, R3
	0x0014 00020 (<autogenerated>:1)	PCDATA	$0, $-1
	0x0014 00020 (<autogenerated>:1)	PCDATA	$2, $-1
	0x0014 00020 (<autogenerated>:1)	CALL	runtime.morestack_noctxt(SB)
	0x0018 00024 (<autogenerated>:1)	NOOP
	0x001c 00028 (<autogenerated>:1)	JMP	0
	0x0020 00032 (<autogenerated>:1)	NOOP
	0x0024 00036 (<autogenerated>:1)	NOP
	0x0024 00036 (<autogenerated>:1)	MOVW	R31, -20(R29)
	0x0028 00040 (<autogenerated>:1)	ADDU	$-20, R29
	0x002c 00044 (<autogenerated>:1)	FUNCDATA	$0, gclocals·de48d210b7ddc49c6e546e3d9e5b0241(SB)
	0x002c 00044 (<autogenerated>:1)	FUNCDATA	$1, gclocals·7434ac78ed715a61a5258eadde9d1323(SB)
	0x002c 00044 (<autogenerated>:1)	FUNCDATA	$3, gclocals·2d459d071cdf96237b17fe6e1c1b64a9(SB)
	0x002c 00044 (<autogenerated>:1)	PCDATA	$2, $0
	0x002c 00044 (<autogenerated>:1)	PCDATA	$0, $0
	0x002c 00044 (<autogenerated>:1)	MOVW	$0, R1
	0x0030 00048 (<autogenerated>:1)	MOVW	"".h+4(FP), R2
	0x0034 00052 (<autogenerated>:1)	JMP	104
	0x0038 00056 (<autogenerated>:1)	NOOP
	0x003c 00060 (<autogenerated>:1)	MOVW	R1, "".i-4(SP)
	0x0040 00064 (<autogenerated>:1)	SLL	$3, R1, R3
	0x0044 00068 (<autogenerated>:1)	PCDATA	$2, $1
	0x0044 00068 (<autogenerated>:1)	MOVW	"".p(FP), R4
	0x0048 00072 (<autogenerated>:1)	PCDATA	$2, $2
	0x0048 00072 (<autogenerated>:1)	ADDU	R3, R4, R3
	0x004c 00076 (<autogenerated>:1)	PCDATA	$2, $0
	0x004c 00076 (<autogenerated>:1)	MOVW	R3, 4(R29)
	0x0050 00080 (<autogenerated>:1)	MOVW	R2, 8(R29)
	0x0054 00084 (<autogenerated>:1)	CALL	runtime.f64hash(SB)
	0x0058 00088 (<autogenerated>:1)	NOOP
	0x005c 00092 (<autogenerated>:1)	MOVW	12(R29), R2
	0x0060 00096 (<autogenerated>:1)	MOVW	"".i-4(SP), R1
	0x0064 00100 (<autogenerated>:1)	ADDU	$1, R1, R1
	0x0068 00104 (<autogenerated>:1)	SGT	$8, R1, R3
	0x006c 00108 (<autogenerated>:1)	BNE	R3, 60
	0x0070 00112 (<autogenerated>:1)	NOOP
	0x0074 00116 (<autogenerated>:1)	PCDATA	$0, $1
	0x0074 00116 (<autogenerated>:1)	MOVW	R2, "".~r2+8(FP)
	0x0078 00120 (<autogenerated>:1)	MOVW	(R29), R31
	0x007c 00124 (<autogenerated>:1)	ADDU	$20, R29
	0x0080 00128 (<autogenerated>:1)	JMP	(R31)
	0x0084 00132 (<autogenerated>:1)	NOOP
	0x0000 8f c1 00 08 00 3d 08 2b 14 20 00 06 00 00 00 00  .....=.+. ......
	0x0010 03 e0 18 25 0c 00 00 05 00 00 00 00 10 00 ff f8  ...%............
	0x0020 00 00 00 00 af bf ff ec 27 bd ff ec 00 00 08 25  ........'......%
	0x0030 8f a2 00 1c 10 00 00 0c 00 00 00 00 af a1 00 10  ................
	0x0040 00 01 18 c0 8f a4 00 18 00 83 18 21 af a3 00 04  ...........!....
	0x0050 af a2 00 08 0c 00 00 15 00 00 00 00 8f a2 00 0c  ................
	0x0060 8f a1 00 10 24 21 00 01 28 23 00 08 14 60 ff f3  ....$!..(#...`..
	0x0070 00 00 00 00 af a2 00 20 8f bf 00 00 27 bd 00 14  ....... ....'...
	0x0080 03 e0 00 08 00 00 00 00                          ........
	rel 20+4 t=13 runtime.morestack_noctxt+0
	rel 84+4 t=13 runtime.f64hash+0
	rel 128+0 t=11 +0
type..eq.[8]float64 STEXT dupok size=104 args=0xc locals=0x0 leaf
	0x0000 00000 (<autogenerated>:1)	TEXT	type..eq.[8]float64(SB), DUPOK|LEAF|NOFRAME, $-4-12
	0x0000 00000 (<autogenerated>:1)	FUNCDATA	$0, gclocals·2cd2818971107a35184433ecc5b7ee05(SB)
	0x0000 00000 (<autogenerated>:1)	FUNCDATA	$1, gclocals·620d97ec6a973339b0251c29b0e87144(SB)
	0x0000 00000 (<autogenerated>:1)	FUNCDATA	$3, gclocals·467e2a72decae72ed91c1d72a6f742c7(SB)
	0x0000 00000 (<autogenerated>:1)	PCDATA	$2, $1
	0x0000 00000 (<autogenerated>:1)	PCDATA	$0, $1
	0x0000 00000 (<autogenerated>:1)	MOVW	"".p(FP), R1
	0x0004 00004 (<autogenerated>:1)	PCDATA	$2, $2
	0x0004 00004 (<autogenerated>:1)	PCDATA	$0, $2
	0x0004 00004 (<autogenerated>:1)	MOVW	"".q+4(FP), R2
	0x0008 00008 (<autogenerated>:1)	MOVW	$0, R3
	0x000c 00012 (<autogenerated>:1)	JMP	24
	0x0010 00016 (<autogenerated>:1)	NOOP
	0x0014 00020 (<autogenerated>:1)	ADDU	$1, R3, R3
	0x0018 00024 (<autogenerated>:1)	SGT	$8, R3, R4
	0x001c 00028 (<autogenerated>:1)	BEQ	R4, 88
	0x0020 00032 (<autogenerated>:1)	NOOP
	0x0024 00036 (<autogenerated>:1)	SLL	$3, R3, R4
	0x0028 00040 (<autogenerated>:1)	PCDATA	$2, $3
	0x0028 00040 (<autogenerated>:1)	ADDU	R1, R4, R5
	0x002c 00044 (<autogenerated>:1)	PCDATA	$2, $2
	0x002c 00044 (<autogenerated>:1)	MOVF	4(R5), F0
	0x0030 00048 (<autogenerated>:1)	MOVF	(R5), F1
	0x0034 00052 (<autogenerated>:1)	PCDATA	$2, $4
	0x0034 00052 (<autogenerated>:1)	ADDU	R2, R4, R4
	0x0038 00056 (<autogenerated>:1)	PCDATA	$2, $2
	0x0038 00056 (<autogenerated>:1)	MOVF	4(R4), F2
	0x003c 00060 (<autogenerated>:1)	MOVF	(R4), F3
	0x0040 00064 (<autogenerated>:1)	CMPEQD	F0, F2
	0x0044 00068 (<autogenerated>:1)	BFPT	20
	0x004c 00076 (<autogenerated>:1)	PCDATA	$2, $0
	0x004c 00076 (<autogenerated>:1)	MOVB	R0, "".~r2+8(FP)
	0x0050 00080 (<autogenerated>:1)	JMP	(R31)
	0x0054 00084 (<autogenerated>:1)	NOOP
	0x0058 00088 (<autogenerated>:1)	MOVW	$1, R1
	0x005c 00092 (<autogenerated>:1)	MOVB	R1, "".~r2+8(FP)
	0x0060 00096 (<autogenerated>:1)	JMP	(R31)
	0x0064 00100 (<autogenerated>:1)	NOOP
	0x0000 8f a1 00 04 8f a2 00 08 00 00 18 25 10 00 00 02  ...........%....
	0x0010 00 00 00 00 24 63 00 01 28 64 00 08 10 80 00 0e  ....$c..(d......
	0x0020 00 00 00 00 00 03 20 c0 00 81 28 21 c4 a0 00 04  ...... ...(!....
	0x0030 c4 a1 00 00 00 82 20 21 c4 82 00 04 c4 83 00 00  ...... !........
	0x0040 46 20 10 32 45 01 ff f3 00 00 00 00 a3 a0 00 0c  F .2E...........
	0x0050 03 e0 00 08 00 00 00 00 24 01 00 01 a3 a1 00 0c  ........$.......
	0x0060 03 e0 00 08 00 00 00 00                          ........
	rel 80+0 t=11 +0
	rel 96+0 t=11 +0
go.info.math.Round$abstract SDWARFINFO dupok size=42
	0x0000 03 6d 61 74 68 2e 52 6f 75 6e 64 00 01 01 0b 62  .math.Round....b
	0x0010 69 74 73 00 4a 00 00 00 00 0b 65 00 4b 00 00 00  its.J.....e.K...
	0x0020 00 10 78 00 00 00 00 00 00 00                    ..x.......
	rel 21+4 t=28 go.info.uint64+0
	rel 29+4 t=28 go.info.uint+0
	rel 37+4 t=28 go.info.float64+0
go.info.math.Float64bits$abstract SDWARFINFO dupok size=29
	0x0000 03 6d 61 74 68 2e 46 6c 6f 61 74 36 34 62 69 74  .math.Float64bit
	0x0010 73 00 01 01 10 66 00 00 00 00 00 00 00           s....f.......
	rel 24+4 t=28 go.info.float64+0
go.info.math.Float64frombits$abstract SDWARFINFO dupok size=33
	0x0000 03 6d 61 74 68 2e 46 6c 6f 61 74 36 34 66 72 6f  .math.Float64fro
	0x0010 6d 62 69 74 73 00 01 01 10 62 00 00 00 00 00 00  mbits....b......
	0x0020 00                                               .
	rel 28+4 t=28 go.info.uint64+0
go.info.math.RoundToEven$abstract SDWARFINFO dupok size=48
	0x0000 03 6d 61 74 68 2e 52 6f 75 6e 64 54 6f 45 76 65  .math.RoundToEve
	0x0010 6e 00 01 01 0b 62 69 74 73 00 70 00 00 00 00 0b  n....bits.p.....
	0x0020 65 00 71 00 00 00 00 10 78 00 00 00 00 00 00 00  e.q.....x.......
	rel 27+4 t=28 go.info.uint64+0
	rel 35+4 t=28 go.info.uint+0
	rel 43+4 t=28 go.info.float64+0
go.info.math.Abs$abstract SDWARFINFO dupok size=21
	0x0000 03 6d 61 74 68 2e 41 62 73 00 01 01 10 78 00 00  .math.Abs....x..
	0x0010 00 00 00 00 00                                   .....
	rel 16+4 t=28 go.info.float64+0
go.info.math.Copysign$abstract SDWARFINFO dupok size=34
	0x0000 03 6d 61 74 68 2e 43 6f 70 79 73 69 67 6e 00 01  .math.Copysign..
	0x0010 01 10 78 00 00 00 00 00 00 10 79 00 00 00 00 00  ..x.......y.....
	0x0020 00 00                                            ..
	rel 21+4 t=28 go.info.float64+0
	rel 29+4 t=28 go.info.float64+0
go.info.math.Float32bits$abstract SDWARFINFO dupok size=29
	0x0000 03 6d 61 74 68 2e 46 6c 6f 61 74 33 32 62 69 74  .math.Float32bit
	0x0010 73 00 01 01 10 66 00 00 00 00 00 00 00           s....f.......
	rel 24+4 t=28 go.info.float32+0
go.info.math.Float32frombits$abstract SDWARFINFO dupok size=33
	0x0000 03 6d 61 74 68 2e 46 6c 6f 61 74 33 32 66 72 6f  .math.Float32fro
	0x0010 6d 62 69 74 73 00 01 01 10 62 00 00 00 00 00 00  mbits....b......
	0x0020 00                                               .
	rel 28+4 t=28 go.info.uint32+0
go.info.math.NaN$abstract SDWARFINFO dupok size=13
	0x0000 03 6d 61 74 68 2e 4e 61 4e 00 01 01 00           .math.NaN....
go.loc."".approx SDWARFLOC size=564
	0x0000 ff ff ff ff 00 00 00 00 00 00 00 34 00 00 03 88  ...........4....
	0x0010 00 02 91 04 00 00 00 00 00 00 00 00 ff ff ff ff  ................
	0x0020 00 00 00 00 00 00 00 a0 00 00 00 ac 00 05 51 93  ..............Q.
	0x0030 04 93 04 00 00 00 ac 00 00 00 bc 00 06 51 93 04  .............Q..
	0x0040 53 93 04 00 00 00 bc 00 00 00 d4 00 05 93 04 53  S..............S
	0x0050 93 04 00 00 00 d4 00 00 00 dc 00 06 51 93 04 53  ............Q..S
	0x0060 93 04 00 00 00 dc 00 00 01 08 00 06 51 93 04 52  ............Q..R
	0x0070 93 04 00 00 03 0c 00 00 03 20 00 06 51 93 04 53  ......... ..Q..S
	0x0080 93 04 00 00 03 20 00 00 03 24 00 05 93 04 53 93  ..... ...$....S.
	0x0090 04 00 00 03 24 00 00 03 68 00 06 51 93 04 53 93  ....$...h..Q..S.
	0x00a0 04 00 00 03 68 00 00 03 88 00 06 51 93 04 52 93  ....h......Q..R.
	0x00b0 04 00 00 00 00 00 00 00 00 ff ff ff ff 00 00 00  ................
	0x00c0 00 00 00 00 a8 00 00 00 c4 00 01 52 00 00 02 dc  ...........R....
	0x00d0 00 00 02 f8 00 01 52 00 00 02 f8 00 00 03 44 00  ......R.......D.
	0x00e0 01 54 00 00 00 00 00 00 00 00 ff ff ff ff 00 00  .T..............
	0x00f0 00 00 00 00 00 34 00 00 03 88 00 02 91 04 00 00  .....4..........
	0x0100 00 00 00 00 00 00 ff ff ff ff 00 00 00 00 00 00  ................
	0x0110 00 94 00 00 03 88 00 02 91 68 00 00 00 00 00 00  .........h......
	0x0120 00 00 ff ff ff ff 00 00 00 00 00 00 00 dc 00 00  ................
	0x0130 03 88 00 02 91 78 00 00 00 00 00 00 00 00 ff ff  .....x..........
	0x0140 ff ff 00 00 00 00 00 00 01 34 00 00 01 40 00 05  .........4...@..
	0x0150 51 93 04 93 04 00 00 01 40 00 00 01 f0 00 06 51  Q.......@......Q
	0x0160 93 04 53 93 04 00 00 01 f0 00 00 01 f4 00 05 93  ..S.............
	0x0170 04 53 93 04 00 00 01 f4 00 00 02 38 00 06 51 93  .S.........8..Q.
	0x0180 04 53 93 04 00 00 02 38 00 00 02 84 00 06 51 93  .S.....8......Q.
	0x0190 04 52 93 04 00 00 02 84 00 00 02 a4 00 05 51 93  .R............Q.
	0x01a0 04 93 04 00 00 02 b0 00 00 02 c4 00 05 51 93 04  .............Q..
	0x01b0 93 04 00 00 00 00 00 00 00 00 ff ff ff ff 00 00  ................
	0x01c0 00 00 00 00 01 3c 00 00 01 ac 00 01 52 00 00 01  .....<......R...
	0x01d0 ac 00 00 02 14 00 01 54 00 00 00 00 00 00 00 00  .......T........
	0x01e0 ff ff ff ff 00 00 00 00 00 00 00 34 00 00 03 88  ...........4....
	0x01f0 00 02 91 04 00 00 00 00 00 00 00 00 ff ff ff ff  ................
	0x0200 00 00 00 00 00 00 01 28 00 00 03 88 00 02 91 60  .......(.......`
	0x0210 00 00 00 00 00 00 00 00 ff ff ff ff 00 00 00 00  ................
	0x0220 00 00 02 3c 00 00 03 88 00 02 91 70 00 00 00 00  ...<.......p....
	0x0230 00 00 00 00                                      ....
	rel 4+4 t=1 "".approx+0
	rel 32+4 t=1 "".approx+0
	rel 189+4 t=1 "".approx+0
	rel 238+4 t=1 "".approx+0
	rel 266+4 t=1 "".approx+0
	rel 294+4 t=1 "".approx+0
	rel 322+4 t=1 "".approx+0
	rel 446+4 t=1 "".approx+0
	rel 484+4 t=1 "".approx+0
	rel 512+4 t=1 "".approx+0
	rel 540+4 t=1 "".approx+0
go.info."".approx SDWARFINFO size=229
	0x0000 02 22 22 2e 61 70 70 72 6f 78 00 00 00 00 00 00  ."".approx......
	0x0010 00 00 00 01 9c 00 00 00 00 01 0f 78 00 00 0d 00  ...........x....
	0x0020 00 00 00 00 00 00 00 06 00 00 00 00 00 00 00 00  ................
	0x0030 00 00 00 00 1b 0d 00 00 00 00 00 00 00 00 0d 00  ................
	0x0040 00 00 00 00 00 00 00 12 00 00 00 00 00 00 00 00  ................
	0x0050 06 00 00 00 00 00 00 00 00 00 00 00 00 4a 12 00  .............J..
	0x0060 00 00 00 00 00 00 00 00 05 00 00 00 00 00 00 00  ................
	0x0070 00 00 00 00 00 00 00 00 00 5c 12 00 00 00 00 00  .........\......
	0x0080 00 00 00 00 00 06 00 00 00 00 00 00 00 00 00 00  ................
	0x0090 00 00 23 0d 00 00 00 00 00 00 00 00 0d 00 00 00  ..#.............
	0x00a0 00 00 00 00 00 12 00 00 00 00 00 00 00 00 06 00  ................
	0x00b0 00 00 00 00 00 00 00 00 00 00 00 70 12 00 00 00  ...........p....
	0x00c0 00 00 00 00 00 00 05 00 00 00 00 00 00 00 00 00  ................
	0x00d0 00 00 00 00 00 00 00 82 01 12 00 00 00 00 00 00  ................
	0x00e0 00 00 00 00 00                                   .....
	rel 11+4 t=1 "".approx+0
	rel 15+4 t=1 "".approx+904
	rel 21+4 t=29 gofile..$GOROOT/test/codegen/math.go+0
	rel 31+4 t=28 go.info.float64+0
	rel 35+4 t=28 go.loc."".approx+0
	rel 40+4 t=28 go.info.math.Round$abstract+0
	rel 44+4 t=28 go.range."".approx+0
	rel 48+4 t=29 gofile..$GOROOT/test/codegen/math.go+0
	rel 54+4 t=28 go.info.math.Round$abstract+14
	rel 58+4 t=28 go.loc."".approx+28
	rel 63+4 t=28 go.info.math.Round$abstract+25
	rel 67+4 t=28 go.loc."".approx+185
	rel 72+4 t=28 go.info.math.Round$abstract+33
	rel 76+4 t=28 go.loc."".approx+234
	rel 81+4 t=28 go.info.math.Float64bits$abstract+0
	rel 85+4 t=28 go.range."".approx+48
	rel 89+4 t=29 gofile..$GOROOT/src/math/floor.go+0
	rel 95+4 t=28 go.info.math.Float64bits$abstract+20
	rel 99+4 t=28 go.loc."".approx+262
	rel 105+4 t=28 go.info.math.Float64frombits$abstract+0
	rel 109+4 t=1 "".approx+224
	rel 113+4 t=1 "".approx+232
	rel 117+4 t=29 gofile..$GOROOT/src/math/floor.go+0
	rel 123+4 t=28 go.info.math.Float64frombits$abstract+24
	rel 127+4 t=28 go.loc."".approx+290
	rel 134+4 t=28 go.info.math.RoundToEven$abstract+0
	rel 138+4 t=28 go.range."".approx+80
	rel 142+4 t=29 gofile..$GOROOT/test/codegen/math.go+0
	rel 148+4 t=28 go.info.math.RoundToEven$abstract+20
	rel 152+4 t=28 go.loc."".approx+318
	rel 157+4 t=28 go.info.math.RoundToEven$abstract+31
	rel 161+4 t=28 go.loc."".approx+442
	rel 166+4 t=28 go.info.math.RoundToEven$abstract+39
	rel 170+4 t=28 go.loc."".approx+480
	rel 175+4 t=28 go.info.math.Float64bits$abstract+0
	rel 179+4 t=28 go.range."".approx+128
	rel 183+4 t=29 gofile..$GOROOT/src/math/floor.go+0
	rel 189+4 t=28 go.info.math.Float64bits$abstract+20
	rel 193+4 t=28 go.loc."".approx+508
	rel 199+4 t=28 go.info.math.Float64frombits$abstract+0
	rel 203+4 t=1 "".approx+576
	rel 207+4 t=1 "".approx+584
	rel 211+4 t=29 gofile..$GOROOT/src/math/floor.go+0
	rel 218+4 t=28 go.info.math.Float64frombits$abstract+24
	rel 222+4 t=28 go.loc."".approx+536
go.range."".approx SDWARFRANGE size=160
	0x0000 ff ff ff ff 00 00 00 00 00 00 00 8c 00 00 00 9c  ................
	0x0010 00 00 00 a0 00 00 00 a8 00 00 00 ac 00 00 00 e0  ................
	0x0020 00 00 02 cc 00 00 03 88 00 00 00 00 00 00 00 00  ................
	0x0030 ff ff ff ff 00 00 00 00 00 00 00 9c 00 00 00 a0  ................
	0x0040 00 00 00 a8 00 00 00 ac 00 00 00 00 00 00 00 00  ................
	0x0050 ff ff ff ff 00 00 00 00 00 00 01 20 00 00 01 30  ........... ...0
	0x0060 00 00 01 34 00 00 01 3c 00 00 01 40 00 00 02 40  ...4...<...@...@
	0x0070 00 00 02 68 00 00 02 cc 00 00 00 00 00 00 00 00  ...h............
	0x0080 ff ff ff ff 00 00 00 00 00 00 01 30 00 00 01 34  ...........0...4
	0x0090 00 00 01 3c 00 00 01 40 00 00 00 00 00 00 00 00  ...<...@........
	rel 4+4 t=1 "".approx+0
	rel 52+4 t=1 "".approx+0
	rel 84+4 t=1 "".approx+0
	rel 132+4 t=1 "".approx+0
go.isstmt."".approx SDWARFMISC size=0
	0x0000 04 0d 01 0a 02 02 01 0a 02 02 01 03 02 01 01 02  ................
	0x0010 02 04 01 01 02 01 01 02 02 02 01 01 02 01 01 03  ................
	0x0020 02 06 01 08 02 02 01 03 02 01 01 01 02 06 01 1e  ................
	0x0030 02 01 01 02 02 01 01 06 02 02 01 0f 02 01 01 01  ................
	0x0040 02 0b 01 0d 02 01 01 06 02 01 01 01 02 03 01 02  ................
	0x0050 02 02 01 03 02 02 01 02 02 02 01 04 02 02 01 02  ................
	0x0060 02 02 01 0f 02 02 01 06 00                       .........
go.loc."".sqrt SDWARFLOC size=0
go.info."".sqrt SDWARFINFO size=47
	0x0000 02 22 22 2e 73 71 72 74 00 00 00 00 00 00 00 00  ."".sqrt........
	0x0010 00 01 9c 00 00 00 00 01 0e 78 00 00 26 00 00 00  .........x..&...
	0x0020 00 00 0e 7e 72 31 00 01 26 00 00 00 00 00 00     ...~r1..&......
	rel 9+4 t=1 "".sqrt+0
	rel 13+4 t=1 "".sqrt+28
	rel 19+4 t=29 gofile..$GOROOT/test/codegen/math.go+0
	rel 29+4 t=28 go.info.float64+0
	rel 41+4 t=28 go.info.float64+0
go.range."".sqrt SDWARFRANGE size=0
go.isstmt."".sqrt SDWARFMISC size=0
	0x0000 04 02 01 05 00                                   .....
go.loc."".abs SDWARFLOC size=196
	0x0000 ff ff ff ff 00 00 00 00 00 00 00 8c 00 00 00 ec  ................
	0x0010 00 02 91 0c 00 00 00 00 00 00 00 00 ff ff ff ff  ................
	0x0020 00 00 00 00 00 00 00 34 00 00 00 ec 00 02 91 04  .......4........
	0x0030 00 00 00 00 00 00 00 00 ff ff ff ff 00 00 00 00  ................
	0x0040 00 00 00 34 00 00 00 ec 00 02 91 68 00 00 00 00  ...4.......h....
	0x0050 00 00 00 00 ff ff ff ff 00 00 00 00 00 00 00 48  ...............H
	0x0060 00 00 00 ec 00 02 91 78 00 00 00 00 00 00 00 00  .......x........
	0x0070 ff ff ff ff 00 00 00 00 00 00 00 8c 00 00 00 ec  ................
	0x0080 00 02 91 0c 00 00 00 00 00 00 00 00 ff ff ff ff  ................
	0x0090 00 00 00 00 00 00 00 8c 00 00 00 ec 00 02 91 60  ...............`
	0x00a0 00 00 00 00 00 00 00 00 ff ff ff ff 00 00 00 00  ................
	0x00b0 00 00 00 a0 00 00 00 ec 00 02 91 70 00 00 00 00  ...........p....
	0x00c0 00 00 00 00                                      ....
	rel 4+4 t=1 "".abs+0
	rel 32+4 t=1 "".abs+0
	rel 60+4 t=1 "".abs+0
	rel 88+4 t=1 "".abs+0
	rel 116+4 t=1 "".abs+0
	rel 144+4 t=1 "".abs+0
	rel 172+4 t=1 "".abs+0
go.info."".abs SDWARFINFO size=207
	0x0000 02 22 22 2e 61 62 73 00 00 00 00 00 00 00 00 00  ."".abs.........
	0x0010 01 9c 00 00 00 00 01 0e 78 00 00 31 00 00 00 00  ........x..1....
	0x0020 00 0f 79 00 00 31 00 00 00 00 00 00 00 00 06 00  ..y..1..........
	0x0030 00 00 00 00 00 00 00 00 00 00 00 35 12 00 00 00  ...........5....
	0x0040 00 00 00 00 00 05 00 00 00 00 00 00 00 00 00 00  ................
	0x0050 00 00 00 00 00 00 0d 12 00 00 00 00 00 00 00 00  ................
	0x0060 00 05 00 00 00 00 00 00 00 00 00 00 00 00 00 00  ................
	0x0070 00 00 0d 12 00 00 00 00 00 00 00 00 00 00 06 00  ................
	0x0080 00 00 00 00 00 00 00 00 00 00 00 3a 12 00 00 00  ...........:....
	0x0090 00 00 00 00 00 05 00 00 00 00 00 00 00 00 00 00  ................
	0x00a0 00 00 00 00 00 00 0d 12 00 00 00 00 00 00 00 00  ................
	0x00b0 00 05 00 00 00 00 00 00 00 00 00 00 00 00 00 00  ................
	0x00c0 00 00 0d 12 00 00 00 00 00 00 00 00 00 00 00     ...............
	rel 8+4 t=1 "".abs+0
	rel 12+4 t=1 "".abs+236
	rel 18+4 t=29 gofile..$GOROOT/test/codegen/math.go+0
	rel 28+4 t=28 go.info.float64+0
	rel 38+4 t=28 go.info.float64+0
	rel 42+4 t=28 go.loc."".abs+0
	rel 47+4 t=28 go.info.math.Abs$abstract+0
	rel 51+4 t=28 go.range."".abs+0
	rel 55+4 t=29 gofile..$GOROOT/test/codegen/math.go+0
	rel 61+4 t=28 go.info.math.Abs$abstract+12
	rel 65+4 t=28 go.loc."".abs+28
	rel 70+4 t=28 go.info.math.Float64bits$abstract+0
	rel 74+4 t=1 "".abs+60
	rel 78+4 t=1 "".abs+68
	rel 82+4 t=29 gofile..$GOROOT/src/math/abs.go+0
	rel 88+4 t=28 go.info.math.Float64bits$abstract+20
	rel 92+4 t=28 go.loc."".abs+56
	rel 98+4 t=28 go.info.math.Float64frombits$abstract+0
	rel 102+4 t=1 "".abs+108
	rel 106+4 t=1 "".abs+116
	rel 110+4 t=29 gofile..$GOROOT/src/math/abs.go+0
	rel 116+4 t=28 go.info.math.Float64frombits$abstract+24
	rel 120+4 t=28 go.loc."".abs+84
	rel 127+4 t=28 go.info.math.Abs$abstract+0
	rel 131+4 t=28 go.range."".abs+32
	rel 135+4 t=29 gofile..$GOROOT/test/codegen/math.go+0
	rel 141+4 t=28 go.info.math.Abs$abstract+12
	rel 145+4 t=28 go.loc."".abs+112
	rel 150+4 t=28 go.info.math.Float64bits$abstract+0
	rel 154+4 t=1 "".abs+148
	rel 158+4 t=1 "".abs+156
	rel 162+4 t=29 gofile..$GOROOT/src/math/abs.go+0
	rel 168+4 t=28 go.info.math.Float64bits$abstract+20
	rel 172+4 t=28 go.loc."".abs+140
	rel 178+4 t=28 go.info.math.Float64frombits$abstract+0
	rel 182+4 t=1 "".abs+196
	rel 186+4 t=1 "".abs+204
	rel 190+4 t=29 gofile..$GOROOT/src/math/abs.go+0
	rel 196+4 t=28 go.info.math.Float64frombits$abstract+24
	rel 200+4 t=28 go.loc."".abs+168
go.range."".abs SDWARFRANGE size=64
	0x0000 ff ff ff ff 00 00 00 00 00 00 00 2c 00 00 00 3c  ...........,...<
	0x0010 00 00 00 44 00 00 00 6c 00 00 00 00 00 00 00 00  ...D...l........
	0x0020 ff ff ff ff 00 00 00 00 00 00 00 84 00 00 00 94  ................
	0x0030 00 00 00 9c 00 00 00 c4 00 00 00 00 00 00 00 00  ................
	rel 4+4 t=1 "".abs+0
	rel 36+4 t=1 "".abs+0
go.isstmt."".abs SDWARFMISC size=0
	0x0000 04 0d 01 04 02 01 01 0b 02 06 01 02 02 01 01 01  ................
	0x0010 02 01 01 09 02 03 01 04 02 03 00                 ...........
go.loc."".abs32 SDWARFLOC size=84
	0x0000 ff ff ff ff 00 00 00 00 00 00 00 34 00 00 00 74  ...........4...t
	0x0010 00 02 90 20 00 00 00 00 00 00 00 00 ff ff ff ff  ... ............
	0x0020 00 00 00 00 00 00 00 30 00 00 00 88 00 02 91 70  .......0.......p
	0x0030 00 00 00 00 00 00 00 00 ff ff ff ff 00 00 00 00  ................
	0x0040 00 00 00 48 00 00 00 88 00 02 91 78 00 00 00 00  ...H.......x....
	0x0050 00 00 00 00                                      ....
	rel 4+4 t=1 "".abs32+0
	rel 32+4 t=1 "".abs32+0
	rel 60+4 t=1 "".abs32+0
go.info."".abs32 SDWARFINFO size=128
	0x0000 02 22 22 2e 61 62 73 33 32 00 00 00 00 00 00 00  ."".abs32.......
	0x0010 00 00 01 9c 00 00 00 00 01 0e 78 00 00 3e 00 00  ..........x..>..
	0x0020 00 00 00 0e 7e 72 31 00 01 3e 00 00 00 00 00 06  ....~r1..>......
	0x0030 00 00 00 00 00 00 00 00 00 00 00 00 40 12 00 00  ............@...
	0x0040 00 00 00 00 00 00 05 00 00 00 00 00 00 00 00 00  ................
	0x0050 00 00 00 00 00 00 00 0d 12 00 00 00 00 00 00 00  ................
	0x0060 00 00 05 00 00 00 00 00 00 00 00 00 00 00 00 00  ................
	0x0070 00 00 00 0d 12 00 00 00 00 00 00 00 00 00 00 00  ................
	rel 10+4 t=1 "".abs32+0
	rel 14+4 t=1 "".abs32+136
	rel 20+4 t=29 gofile..$GOROOT/test/codegen/math.go+0
	rel 30+4 t=28 go.info.float32+0
	rel 42+4 t=28 go.info.float32+0
	rel 48+4 t=28 go.info.math.Abs$abstract+0
	rel 52+4 t=28 go.range."".abs32+0
	rel 56+4 t=29 gofile..$GOROOT/test/codegen/math.go+0
	rel 62+4 t=28 go.info.math.Abs$abstract+12
	rel 66+4 t=28 go.loc."".abs32+0
	rel 71+4 t=28 go.info.math.Float64bits$abstract+0
	rel 75+4 t=1 "".abs32+60
	rel 79+4 t=1 "".abs32+68
	rel 83+4 t=29 gofile..$GOROOT/src/math/abs.go+0
	rel 89+4 t=28 go.info.math.Float64bits$abstract+20
	rel 93+4 t=28 go.loc."".abs32+28
	rel 99+4 t=28 go.info.math.Float64frombits$abstract+0
	rel 103+4 t=1 "".abs32+108
	rel 107+4 t=1 "".abs32+116
	rel 111+4 t=29 gofile..$GOROOT/src/math/abs.go+0
	rel 117+4 t=28 go.info.math.Float64frombits$abstract+24
	rel 121+4 t=28 go.loc."".abs32+56
go.range."".abs32 SDWARFRANGE size=32
	0x0000 ff ff ff ff 00 00 00 00 00 00 00 34 00 00 00 3c  ...........4...<
	0x0010 00 00 00 44 00 00 00 6c 00 00 00 00 00 00 00 00  ...D...l........
	rel 4+4 t=1 "".abs32+0
go.isstmt."".abs32 SDWARFMISC size=0
	0x0000 04 0c 01 01 02 03 01 01 02 01 01 09 02 03 01 04  ................
	0x0010 00                                               .
go.loc."".copysign SDWARFLOC size=421
	0x0000 ff ff ff ff 00 00 00 00 00 00 00 34 00 00 01 84  ...........4....
	0x0010 00 02 91 04 00 00 00 00 00 00 00 00 ff ff ff ff  ................
	0x0020 00 00 00 00 00 00 00 ac 00 00 01 84 00 02 91 14  ................
	0x0030 00 00 00 00 00 00 00 00 ff ff ff ff 00 00 00 00  ................
	0x0040 00 00 00 34 00 00 01 84 00 02 91 04 00 00 00 00  ...4............
	0x0050 00 00 00 00 ff ff ff ff 00 00 00 00 00 00 00 4c  ...............L
	0x0060 00 00 01 84 00 02 91 0c 00 00 00 00 00 00 00 00  ................
	0x0070 ff ff ff ff 00 00 00 00 00 00 00 34 00 00 01 84  ...........4....
	0x0080 00 02 91 50 00 00 00 00 00 00 00 00 ff ff ff ff  ...P............
	0x0090 00 00 00 00 00 00 00 4c 00 00 01 84 00 02 91 48  .......L.......H
	0x00a0 00 00 00 00 00 00 00 00 ff ff ff ff 00 00 00 00  ................
	0x00b0 00 00 00 5c 00 00 01 84 00 02 91 60 00 00 00 00  ...\.......`....
	0x00c0 00 00 00 00 ff ff ff ff 00 00 00 00 00 00 00 ac  ................
	0x00d0 00 00 01 84 00 02 91 14 00 00 00 00 00 00 00 00  ................
	0x00e0 ff ff ff ff 00 00 00 00 00 00 00 ac 00 00 01 84  ................
	0x00f0 00 02 91 58 00 00 00 00 00 00 00 00 ff ff ff ff  ...X............
	0x0100 00 00 00 00 00 00 00 c0 00 00 01 84 00 02 91 70  ...............p
	0x0110 00 00 00 00 00 00 00 00 ff ff ff ff 00 00 00 00  ................
	0x0120 00 00 01 0c 00 00 01 84 00 03 91 b8 7f 00 00 00  ................
	0x0130 00 00 00 00 00 ff ff ff ff 00 00 00 00 00 00 01  ................
	0x0140 1c 00 00 01 84 00 02 91 68 00 00 00 00 00 00 00  ........h.......
	0x0150 00 ff ff ff ff 00 00 00 00 00 00 00 ac 00 00 01  ................
	0x0160 84 00 02 91 14 00 00 00 00 00 00 00 00 ff ff ff  ................
	0x0170 ff 00 00 00 00 00 00 01 44 00 00 01 84 00 02 91  ........D.......
	0x0180 40 00 00 00 00 00 00 00 00 ff ff ff ff 00 00 00  @...............
	0x0190 00 00 00 01 4c 00 00 01 84 00 02 91 78 00 00 00  ....L.......x...
	0x01a0 00 00 00 00 00                                   .....
	rel 4+4 t=1 "".copysign+0
	rel 32+4 t=1 "".copysign+0
	rel 60+4 t=1 "".copysign+0
	rel 88+4 t=1 "".copysign+0
	rel 116+4 t=1 "".copysign+0
	rel 144+4 t=1 "".copysign+0
	rel 172+4 t=1 "".copysign+0
	rel 200+4 t=1 "".copysign+0
	rel 228+4 t=1 "".copysign+0
	rel 256+4 t=1 "".copysign+0
	rel 284+4 t=1 "".copysign+0
	rel 313+4 t=1 "".copysign+0
	rel 341+4 t=1 "".copysign+0
	rel 369+4 t=1 "".copysign+0
	rel 397+4 t=1 "".copysign+0
go.info."".copysign SDWARFINFO size=398
	0x0000 02 22 22 2e 63 6f 70 79 73 69 67 6e 00 00 00 00  ."".copysign....
	0x0010 00 00 00 00 00 01 9c 00 00 00 00 01 0f 61 00 00  .............a..
	0x0020 44 00 00 00 00 00 00 00 00 0e 62 00 00 44 00 00  D.........b..D..
	0x0030 00 00 00 0f 63 00 00 44 00 00 00 00 00 00 00 00  ....c..D........
	0x0040 06 00 00 00 00 00 00 00 00 00 00 00 00 48 12 00  .............H..
	0x0050 00 00 00 00 00 00 00 12 00 00 00 00 00 00 00 00  ................
	0x0060 05 00 00 00 00 00 00 00 00 00 00 00 00 00 00 00  ................
	0x0070 00 0b 12 00 00 00 00 00 00 00 00 00 05 00 00 00  ................
	0x0080 00 00 00 00 00 00 00 00 00 00 00 00 00 0b 12 00  ................
	0x0090 00 00 00 00 00 00 00 00 05 00 00 00 00 00 00 00  ................
	0x00a0 00 00 00 00 00 00 00 00 00 0b 12 00 00 00 00 00  ................
	0x00b0 00 00 00 00 00 06 00 00 00 00 00 00 00 00 00 00  ................
	0x00c0 00 00 4d 12 00 00 00 00 00 00 00 00 05 00 00 00  ..M.............
	0x00d0 00 00 00 00 00 00 00 00 00 00 00 00 00 0b 12 00  ................
	0x00e0 00 00 00 00 00 00 00 00 05 00 00 00 00 00 00 00  ................
	0x00f0 00 00 00 00 00 00 00 00 00 0b 12 00 00 00 00 00  ................
	0x0100 00 00 00 00 00 05 00 00 00 00 00 00 00 00 00 00  ................
	0x0110 00 00 00 00 00 00 52 12 00 00 00 00 00 00 00 00  ......R.........
	0x0120 00 05 00 00 00 00 00 00 00 00 00 00 00 00 00 00  ................
	0x0130 00 00 52 12 00 00 00 00 00 00 00 00 00 06 00 00  ..R.............
	0x0140 00 00 00 00 00 00 00 00 00 00 57 12 00 00 00 00  ..........W.....
	0x0150 00 00 00 00 05 00 00 00 00 00 00 00 00 00 00 00  ................
	0x0160 00 00 00 00 00 0b 12 00 00 00 00 00 00 00 00 00  ................
	0x0170 05 00 00 00 00 00 00 00 00 00 00 00 00 00 00 00  ................
	0x0180 00 0b 12 00 00 00 00 00 00 00 00 00 00 00        ..............
	rel 13+4 t=1 "".copysign+0
	rel 17+4 t=1 "".copysign+388
	rel 23+4 t=29 gofile..$GOROOT/test/codegen/math.go+0
	rel 33+4 t=28 go.info.float64+0
	rel 37+4 t=28 go.loc."".copysign+0
	rel 46+4 t=28 go.info.float64+0
	rel 56+4 t=28 go.info.float64+0
	rel 60+4 t=28 go.loc."".copysign+28
	rel 65+4 t=28 go.info.math.Copysign$abstract+0
	rel 69+4 t=28 go.range."".copysign+0
	rel 73+4 t=29 gofile..$GOROOT/test/codegen/math.go+0
	rel 79+4 t=28 go.info.math.Copysign$abstract+17
	rel 83+4 t=28 go.loc."".copysign+56
	rel 88+4 t=28 go.info.math.Copysign$abstract+25
	rel 92+4 t=28 go.loc."".copysign+84
	rel 97+4 t=28 go.info.math.Float64bits$abstract+0
	rel 101+4 t=1 "".copysign+60
	rel 105+4 t=1 "".copysign+68
	rel 109+4 t=29 gofile..$GOROOT/src/math/copysign.go+0
	rel 115+4 t=28 go.info.math.Float64bits$abstract+20
	rel 119+4 t=28 go.loc."".copysign+112
	rel 125+4 t=28 go.info.math.Float64bits$abstract+0
	rel 129+4 t=1 "".copysign+84
	rel 133+4 t=1 "".copysign+88
	rel 137+4 t=29 gofile..$GOROOT/src/math/copysign.go+0
	rel 143+4 t=28 go.info.math.Float64bits$abstract+20
	rel 147+4 t=28 go.loc."".copysign+140
	rel 153+4 t=28 go.info.math.Float64frombits$abstract+0
	rel 157+4 t=1 "".copysign+140
	rel 161+4 t=1 "".copysign+148
	rel 165+4 t=29 gofile..$GOROOT/src/math/copysign.go+0
	rel 171+4 t=28 go.info.math.Float64frombits$abstract+24
	rel 175+4 t=28 go.loc."".copysign+168
	rel 182+4 t=28 go.info.math.Copysign$abstract+0
	rel 186+4 t=28 go.range."".copysign+40
	rel 190+4 t=29 gofile..$GOROOT/test/codegen/math.go+0
	rel 196+4 t=28 go.info.math.Copysign$abstract+17
	rel 200+4 t=28 go.loc."".copysign+196
	rel 205+4 t=28 go.info.math.Float64bits$abstract+0
	rel 209+4 t=1 "".copysign+180
	rel 213+4 t=1 "".copysign+188
	rel 217+4 t=29 gofile..$GOROOT/src/math/copysign.go+0
	rel 223+4 t=28 go.info.math.Float64bits$abstract+20
	rel 227+4 t=28 go.loc."".copysign+224
	rel 233+4 t=28 go.info.math.Float64frombits$abstract+0
	rel 237+4 t=1 "".copysign+236
	rel 241+4 t=1 "".copysign+244
	rel 245+4 t=29 gofile..$GOROOT/src/math/copysign.go+0
	rel 251+4 t=28 go.info.math.Float64frombits$abstract+24
	rel 255+4 t=28 go.loc."".copysign+252
	rel 262+4 t=28 go.info.math.Float64bits$abstract+0
	rel 266+4 t=1 "".copysign+268
	rel 270+4 t=1 "".copysign+276
	rel 274+4 t=29 gofile..$GOROOT/test/codegen/math.go+0
	rel 280+4 t=28 go.info.math.Float64bits$abstract+20
	rel 284+4 t=28 go.loc."".copysign+280
	rel 290+4 t=28 go.info.math.Float64frombits$abstract+0
	rel 294+4 t=1 "".copysign+292
	rel 298+4 t=1 "".copysign+300
	rel 302+4 t=29 gofile..$GOROOT/test/codegen/math.go+0
	rel 308+4 t=28 go.info.math.Float64frombits$abstract+24
	rel 312+4 t=28 go.loc."".copysign+309
	rel 318+4 t=28 go.info.math.Copysign$abstract+0
	rel 322+4 t=28 go.range."".copysign+72
	rel 326+4 t=29 gofile..$GOROOT/test/codegen/math.go+0
	rel 332+4 t=28 go.info.math.Copysign$abstract+25
	rel 336+4 t=28 go.loc."".copysign+337
	rel 341+4 t=28 go.info.math.Float64bits$abstract+0
	rel 345+4 t=1 "".copysign+324
	rel 349+4 t=1 "".copysign+328
	rel 353+4 t=29 gofile..$GOROOT/src/math/copysign.go+0
	rel 359+4 t=28 go.info.math.Float64bits$abstract+20
	rel 363+4 t=28 go.loc."".copysign+365
	rel 369+4 t=28 go.info.math.Float64frombits$abstract+0
	rel 373+4 t=1 "".copysign+352
	rel 377+4 t=1 "".copysign+360
	rel 381+4 t=29 gofile..$GOROOT/src/math/copysign.go+0
	rel 387+4 t=28 go.info.math.Float64frombits$abstract+24
	rel 391+4 t=28 go.loc."".copysign+393
go.range."".copysign SDWARFRANGE size=104
	0x0000 ff ff ff ff 00 00 00 00 00 00 00 2c 00 00 00 3c  ...........,...<
	0x0010 00 00 00 44 00 00 00 54 00 00 00 58 00 00 00 8c  ...D...T...X....
	0x0020 00 00 00 00 00 00 00 00 ff ff ff ff 00 00 00 00  ................
	0x0030 00 00 00 a4 00 00 00 b4 00 00 00 bc 00 00 00 ec  ................
	0x0040 00 00 00 00 00 00 00 00 ff ff ff ff 00 00 00 00  ................
	0x0050 00 00 01 3c 00 00 01 44 00 00 01 48 00 00 01 60  ...<...D...H...`
	0x0060 00 00 00 00 00 00 00 00                          ........
	rel 4+4 t=1 "".copysign+0
	rel 44+4 t=1 "".copysign+0
	rel 76+4 t=1 "".copysign+0
go.isstmt."".copysign SDWARFMISC size=0
	0x0000 04 0d 01 04 02 02 01 03 02 01 01 0c 02 08 01 04  ................
	0x0010 02 01 01 0d 02 06 01 02 02 02 01 04 02 08 01 07  ................
	0x0020 02 07 00                                         ...
go.loc."".fromFloat64 SDWARFLOC size=28
	0x0000 ff ff ff ff 00 00 00 00 00 00 00 34 00 00 00 78  ...........4...x
	0x0010 00 02 91 78 00 00 00 00 00 00 00 00              ...x........
	rel 4+4 t=1 "".fromFloat64+0
go.info."".fromFloat64 SDWARFINFO size=84
	0x0000 02 22 22 2e 66 72 6f 6d 46 6c 6f 61 74 36 34 00  ."".fromFloat64.
	0x0010 00 00 00 00 00 00 00 00 01 9c 00 00 00 00 01 0e  ................
	0x0020 66 36 34 00 00 5a 00 00 00 00 00 0e 7e 72 31 00  f64..Z......~r1.
	0x0030 01 5a 00 00 00 00 00 05 00 00 00 00 00 00 00 00  .Z..............
	0x0040 00 00 00 00 00 00 00 00 5c 12 00 00 00 00 00 00  ........\.......
	0x0050 00 00 00 00                                      ....
	rel 16+4 t=1 "".fromFloat64+0
	rel 20+4 t=1 "".fromFloat64+120
	rel 26+4 t=29 gofile..$GOROOT/test/codegen/math.go+0
	rel 38+4 t=28 go.info.float64+0
	rel 50+4 t=28 go.info.uint64+0
	rel 56+4 t=28 go.info.math.Float64bits$abstract+0
	rel 60+4 t=1 "".fromFloat64+80
	rel 64+4 t=1 "".fromFloat64+88
	rel 68+4 t=29 gofile..$GOROOT/test/codegen/math.go+0
	rel 74+4 t=28 go.info.math.Float64bits$abstract+20
	rel 78+4 t=28 go.loc."".fromFloat64+0
go.range."".fromFloat64 SDWARFRANGE size=0
go.isstmt."".fromFloat64 SDWARFMISC size=0
	0x0000 04 0d 01 07 02 01 01 01 02 01 01 07 00           .............
go.loc."".fromFloat32 SDWARFLOC size=28
	0x0000 ff ff ff ff 00 00 00 00 00 00 00 30 00 00 00 58  ...........0...X
	0x0010 00 02 91 7c 00 00 00 00 00 00 00 00              ...|........
	rel 4+4 t=1 "".fromFloat32+0
go.info."".fromFloat32 SDWARFINFO size=84
	0x0000 02 22 22 2e 66 72 6f 6d 46 6c 6f 61 74 33 32 00  ."".fromFloat32.
	0x0010 00 00 00 00 00 00 00 00 01 9c 00 00 00 00 01 0e  ................
	0x0020 66 33 32 00 00 5f 00 00 00 00 00 0e 7e 72 31 00  f32.._......~r1.
	0x0030 01 5f 00 00 00 00 00 05 00 00 00 00 00 00 00 00  ._..............
	0x0040 00 00 00 00 00 00 00 00 61 12 00 00 00 00 00 00  ........a.......
	0x0050 00 00 00 00                                      ....
	rel 16+4 t=1 "".fromFloat32+0
	rel 20+4 t=1 "".fromFloat32+88
	rel 26+4 t=29 gofile..$GOROOT/test/codegen/math.go+0
	rel 38+4 t=28 go.info.float32+0
	rel 50+4 t=28 go.info.uint32+0
	rel 56+4 t=28 go.info.math.Float32bits$abstract+0
	rel 60+4 t=1 "".fromFloat32+64
	rel 64+4 t=1 "".fromFloat32+68
	rel 68+4 t=29 gofile..$GOROOT/test/codegen/math.go+0
	rel 74+4 t=28 go.info.math.Float32bits$abstract+20
	rel 78+4 t=28 go.loc."".fromFloat32+0
go.range."".fromFloat32 SDWARFRANGE size=0
go.isstmt."".fromFloat32 SDWARFMISC size=0
	0x0000 04 0c 01 04 02 02 01 04 00                       .........
go.loc."".toFloat64 SDWARFLOC size=28
	0x0000 ff ff ff ff 00 00 00 00 00 00 00 30 00 00 00 78  ...........0...x
	0x0010 00 02 91 78 00 00 00 00 00 00 00 00              ...x........
	rel 4+4 t=1 "".toFloat64+0
go.info."".toFloat64 SDWARFINFO size=82
	0x0000 02 22 22 2e 74 6f 46 6c 6f 61 74 36 34 00 00 00  ."".toFloat64...
	0x0010 00 00 00 00 00 00 01 9c 00 00 00 00 01 0e 75 36  ..............u6
	0x0020 34 00 00 64 00 00 00 00 00 0e 7e 72 31 00 01 64  4..d......~r1..d
	0x0030 00 00 00 00 00 05 00 00 00 00 00 00 00 00 00 00  ................
	0x0040 00 00 00 00 00 00 66 12 00 00 00 00 00 00 00 00  ......f.........
	0x0050 00 00                                            ..
	rel 14+4 t=1 "".toFloat64+0
	rel 18+4 t=1 "".toFloat64+120
	rel 24+4 t=29 gofile..$GOROOT/test/codegen/math.go+0
	rel 36+4 t=28 go.info.uint64+0
	rel 48+4 t=28 go.info.float64+0
	rel 54+4 t=28 go.info.math.Float64frombits$abstract+0
	rel 58+4 t=1 "".toFloat64+72
	rel 62+4 t=1 "".toFloat64+80
	rel 66+4 t=29 gofile..$GOROOT/test/codegen/math.go+0
	rel 72+4 t=28 go.info.math.Float64frombits$abstract+24
	rel 76+4 t=28 go.loc."".toFloat64+0
go.range."".toFloat64 SDWARFRANGE size=0
go.isstmt."".toFloat64 SDWARFMISC size=0
	0x0000 04 0c 01 06 02 06 01 06 00                       .........
go.loc."".toFloat32 SDWARFLOC size=28
	0x0000 ff ff ff ff 00 00 00 00 00 00 00 30 00 00 00 58  ...........0...X
	0x0010 00 02 91 7c 00 00 00 00 00 00 00 00              ...|........
	rel 4+4 t=1 "".toFloat32+0
go.info."".toFloat32 SDWARFINFO size=82
	0x0000 02 22 22 2e 74 6f 46 6c 6f 61 74 33 32 00 00 00  ."".toFloat32...
	0x0010 00 00 00 00 00 00 01 9c 00 00 00 00 01 0e 75 33  ..............u3
	0x0020 32 00 00 69 00 00 00 00 00 0e 7e 72 31 00 01 69  2..i......~r1..i
	0x0030 00 00 00 00 00 05 00 00 00 00 00 00 00 00 00 00  ................
	0x0040 00 00 00 00 00 00 6b 12 00 00 00 00 00 00 00 00  ......k.........
	0x0050 00 00                                            ..
	rel 14+4 t=1 "".toFloat32+0
	rel 18+4 t=1 "".toFloat32+88
	rel 24+4 t=29 gofile..$GOROOT/test/codegen/math.go+0
	rel 36+4 t=28 go.info.uint32+0
	rel 48+4 t=28 go.info.float32+0
	rel 54+4 t=28 go.info.math.Float32frombits$abstract+0
	rel 58+4 t=1 "".toFloat32+56
	rel 62+4 t=1 "".toFloat32+60
	rel 66+4 t=29 gofile..$GOROOT/test/codegen/math.go+0
	rel 72+4 t=28 go.info.math.Float32frombits$abstract+24
	rel 76+4 t=28 go.loc."".toFloat32+0
go.range."".toFloat32 SDWARFRANGE size=0
go.isstmt."".toFloat32 SDWARFMISC size=0
	0x0000 04 0c 01 02 02 03 01 05 00                       .........
go.loc."".constantCheck64 SDWARFLOC size=0
go.info."".constantCheck64 SDWARFINFO size=48
	0x0000 02 22 22 2e 63 6f 6e 73 74 61 6e 74 43 68 65 63  ."".constantChec
	0x0010 6b 36 34 00 00 00 00 00 00 00 00 00 01 9c 00 00  k64.............
	0x0020 00 00 01 0e 7e 72 30 00 01 71 00 00 00 00 00 00  ....~r0..q......
	rel 20+4 t=1 "".constantCheck64+0
	rel 24+4 t=1 "".constantCheck64+12
	rel 30+4 t=29 gofile..$GOROOT/test/codegen/math.go+0
	rel 42+4 t=28 go.info.bool+0
go.range."".constantCheck64 SDWARFRANGE size=0
go.isstmt."".constantCheck64 SDWARFMISC size=0
	0x0000 04 01 01 02 00                                   .....
go.loc."".constantCheck32 SDWARFLOC size=0
go.info."".constantCheck32 SDWARFINFO size=48
	0x0000 02 22 22 2e 63 6f 6e 73 74 61 6e 74 43 68 65 63  ."".constantChec
	0x0010 6b 33 32 00 00 00 00 00 00 00 00 00 01 9c 00 00  k32.............
	0x0020 00 00 01 0e 7e 72 30 00 01 77 00 00 00 00 00 00  ....~r0..w......
	rel 20+4 t=1 "".constantCheck32+0
	rel 24+4 t=1 "".constantCheck32+16
	rel 30+4 t=29 gofile..$GOROOT/test/codegen/math.go+0
	rel 42+4 t=28 go.info.bool+0
go.range."".constantCheck32 SDWARFRANGE size=0
go.isstmt."".constantCheck32 SDWARFMISC size=0
	0x0000 04 01 01 03 00                                   .....
go.loc."".constantConvert32 SDWARFLOC size=28
	0x0000 ff ff ff ff 00 00 00 00 00 00 00 04 00 00 00 34  ...............4
	0x0010 00 02 91 04 00 00 00 00 00 00 00 00              ............
	rel 4+4 t=1 "".constantConvert32+0
go.info."".constantConvert32 SDWARFINFO size=65
	0x0000 02 22 22 2e 63 6f 6e 73 74 61 6e 74 43 6f 6e 76  ."".constantConv
	0x0010 65 72 74 33 32 00 00 00 00 00 00 00 00 00 01 9c  ert32...........
	0x0020 00 00 00 00 01 0f 78 00 00 80 01 00 00 00 00 00  ......x.........
	0x0030 00 00 00 0e 7e 72 31 00 01 80 01 00 00 00 00 00  ....~r1.........
	0x0040 00                                               .
	rel 22+4 t=1 "".constantConvert32+0
	rel 26+4 t=1 "".constantConvert32+52
	rel 32+4 t=29 gofile..$GOROOT/test/codegen/math.go+0
	rel 43+4 t=28 go.info.float32+0
	rel 47+4 t=28 go.loc."".constantConvert32+0
	rel 59+4 t=28 go.info.float32+0
go.range."".constantConvert32 SDWARFRANGE size=0
go.isstmt."".constantConvert32 SDWARFMISC size=0
	0x0000 04 01 01 05 02 01 01 03 02 01 01 02 00           .............
go.loc."".constantConvertInt32 SDWARFLOC size=28
	0x0000 ff ff ff ff 00 00 00 00 00 00 00 04 00 00 00 30  ...............0
	0x0010 00 02 91 04 00 00 00 00 00 00 00 00              ............
	rel 4+4 t=1 "".constantConvertInt32+0
go.info."".constantConvertInt32 SDWARFINFO size=68
	0x0000 02 22 22 2e 63 6f 6e 73 74 61 6e 74 43 6f 6e 76  ."".constantConv
	0x0010 65 72 74 49 6e 74 33 32 00 00 00 00 00 00 00 00  ertInt32........
	0x0020 00 01 9c 00 00 00 00 01 0f 78 00 00 8a 01 00 00  .........x......
	0x0030 00 00 00 00 00 00 0e 7e 72 31 00 01 8a 01 00 00  .......~r1......
	0x0040 00 00 00 00                                      ....
	rel 25+4 t=1 "".constantConvertInt32+0
	rel 29+4 t=1 "".constantConvertInt32+48
	rel 35+4 t=29 gofile..$GOROOT/test/codegen/math.go+0
	rel 46+4 t=28 go.info.uint32+0
	rel 50+4 t=28 go.loc."".constantConvertInt32+0
	rel 62+4 t=28 go.info.uint32+0
go.range."".constantConvertInt32 SDWARFRANGE size=0
go.isstmt."".constantConvertInt32 SDWARFMISC size=0
	0x0000 04 01 01 04 02 01 01 03 02 01 01 02 00           .............
"".sink64 SNOPTRBSS size=64
runtime.gcbits.01 SRODATA dupok size=1
	0x0000 01                                               .
type..namedata.*[]float64- SRODATA dupok size=13
	0x0000 00 00 0a 2a 5b 5d 66 6c 6f 61 74 36 34           ...*[]float64
type.*[]float64 SRODATA dupok size=36
	0x0000 00 00 00 04 00 00 00 04 4f 61 91 f4 00 04 04 36  ........Oa.....6
	0x0010 00 00 00 00 00 00 00 00 00 00 00 00 00 00 00 00  ................
	0x0020 00 00 00 00                                      ....
	rel 16+4 t=1 runtime.algarray+32
	rel 20+4 t=1 runtime.gcbits.01+0
	rel 24+4 t=5 type..namedata.*[]float64-+0
	rel 32+4 t=1 type.[]float64+0
type.[]float64 SRODATA dupok size=36
	0x0000 00 00 00 0c 00 00 00 04 9c 37 33 30 02 04 04 17  .........730....
	0x0010 00 00 00 00 00 00 00 00 00 00 00 00 00 00 00 00  ................
	0x0020 00 00 00 00                                      ....
	rel 16+4 t=1 runtime.algarray+0
	rel 20+4 t=1 runtime.gcbits.01+0
	rel 24+4 t=5 type..namedata.*[]float64-+0
	rel 28+4 t=6 type.*[]float64+0
	rel 32+4 t=1 type.float64+0
go.loc.type..hash.[8]float64 SDWARFLOC dupok size=94
	0x0000 ff ff ff ff 00 00 00 00 00 00 00 40 00 00 00 6c  ...........@...l
	0x0010 00 02 91 7c 00 00 00 6c 00 00 00 88 00 01 51 00  ...|...l......Q.
	0x0020 00 00 00 00 00 00 00 ff ff ff ff 00 00 00 00 00  ................
	0x0030 00 00 30 00 00 00 88 00 02 91 04 00 00 00 00 00  ..0.............
	0x0040 00 00 00 ff ff ff ff 00 00 00 00 00 00 00 60 00  ..............`.
	0x0050 00 00 88 00 01 52 00 00 00 00 00 00 00 00        .....R........
	rel 4+4 t=1 type..hash.[8]float64+0
	rel 43+4 t=1 type..hash.[8]float64+0
	rel 71+4 t=1 type..hash.[8]float64+0
go.info.type..hash.[8]float64 SDWARFINFO dupok size=89
	0x0000 02 74 79 70 65 2e 2e 68 61 73 68 2e 5b 38 5d 66  .type..hash.[8]f
	0x0010 6c 6f 61 74 36 34 00 00 00 00 00 00 00 00 00 01  loat64..........
	0x0020 9c 00 00 00 00 01 0a 69 00 01 00 00 00 00 00 00  .......i........
	0x0030 00 00 0f 70 00 00 01 00 00 00 00 00 00 00 00 0f  ...p............
	0x0040 68 00 00 01 00 00 00 00 00 00 00 00 0e 7e 72 32  h............~r2
	0x0050 00 01 01 00 00 00 00 00 00                       .........
	rel 23+4 t=1 type..hash.[8]float64+0
	rel 27+4 t=1 type..hash.[8]float64+136
	rel 33+4 t=29 gofile..<autogenerated>+0
	rel 42+4 t=28 go.info.int+0
	rel 46+4 t=28 go.loc.type..hash.[8]float64+0
	rel 55+4 t=28 go.info.*[8]float64+0
	rel 59+4 t=28 go.loc.type..hash.[8]float64+39
	rel 68+4 t=28 go.info.uintptr+0
	rel 72+4 t=28 go.loc.type..hash.[8]float64+67
	rel 83+4 t=28 go.info.uintptr+0
go.range.type..hash.[8]float64 SDWARFRANGE dupok size=0
go.isstmt.type..hash.[8]float64 SDWARFMISC dupok size=0
	0x0000 04 0c 01 0e 02 01 01 02 02 01 01 04 00           .............
go.loc.type..eq.[8]float64 SDWARFLOC dupok size=83
	0x0000 ff ff ff ff 00 00 00 00 00 00 00 1c 00 00 00 68  ...............h
	0x0010 00 01 53 00 00 00 00 00 00 00 00 ff ff ff ff 00  ..S.............
	0x0020 00 00 00 00 00 00 04 00 00 00 68 00 02 91 04 00  ..........h.....
	0x0030 00 00 00 00 00 00 00 ff ff ff ff 00 00 00 00 00  ................
	0x0040 00 00 04 00 00 00 68 00 02 91 08 00 00 00 00 00  ......h.........
	0x0050 00 00 00                                         ...
	rel 4+4 t=1 type..eq.[8]float64+0
	rel 31+4 t=1 type..eq.[8]float64+0
	rel 59+4 t=1 type..eq.[8]float64+0
go.info.type..eq.[8]float64 SDWARFINFO dupok size=87
	0x0000 02 74 79 70 65 2e 2e 65 71 2e 5b 38 5d 66 6c 6f  .type..eq.[8]flo
	0x0010 61 74 36 34 00 00 00 00 00 00 00 00 00 01 9c 00  at64............
	0x0020 00 00 00 01 0a 69 00 01 00 00 00 00 00 00 00 00  .....i..........
	0x0030 0f 70 00 00 01 00 00 00 00 00 00 00 00 0f 71 00  .p............q.
	0x0040 00 01 00 00 00 00 00 00 00 00 0e 7e 72 32 00 01  ...........~r2..
	0x0050 01 00 00 00 00 00 00                             .......
	rel 21+4 t=1 type..eq.[8]float64+0
	rel 25+4 t=1 type..eq.[8]float64+104
	rel 31+4 t=29 gofile..<autogenerated>+0
	rel 40+4 t=28 go.info.int+0
	rel 44+4 t=28 go.loc.type..eq.[8]float64+0
	rel 53+4 t=28 go.info.*[8]float64+0
	rel 57+4 t=28 go.loc.type..eq.[8]float64+27
	rel 66+4 t=28 go.info.*[8]float64+0
	rel 70+4 t=28 go.loc.type..eq.[8]float64+55
	rel 81+4 t=28 go.info.bool+0
go.range.type..eq.[8]float64 SDWARFRANGE dupok size=0
go.isstmt.type..eq.[8]float64 SDWARFMISC dupok size=0
	0x0000 04 01 01 05 02 01 01 0c 02 01 01 02 02 01 01 03  ................
	0x0010 00                                               .
type..hashfunc.[8]float64 SRODATA dupok size=4
	0x0000 00 00 00 00                                      ....
	rel 0+4 t=1 type..hash.[8]float64+0
type..eqfunc.[8]float64 SRODATA dupok size=4
	0x0000 00 00 00 00                                      ....
	rel 0+4 t=1 type..eq.[8]float64+0
type..alg.[8]float64 SRODATA dupok size=8
	0x0000 00 00 00 00 00 00 00 00                          ........
	rel 0+4 t=1 type..hashfunc.[8]float64+0
	rel 4+4 t=1 type..eqfunc.[8]float64+0
type..namedata.*[8]float64- SRODATA dupok size=14
	0x0000 00 00 0b 2a 5b 38 5d 66 6c 6f 61 74 36 34        ...*[8]float64
type.*[8]float64 SRODATA dupok size=36
	0x0000 00 00 00 04 00 00 00 04 0a 96 31 5e 00 04 04 36  ..........1^...6
	0x0010 00 00 00 00 00 00 00 00 00 00 00 00 00 00 00 00  ................
	0x0020 00 00 00 00                                      ....
	rel 16+4 t=1 runtime.algarray+32
	rel 20+4 t=1 runtime.gcbits.01+0
	rel 24+4 t=5 type..namedata.*[8]float64-+0
	rel 32+4 t=1 type.[8]float64+0
runtime.gcbits. SRODATA dupok size=0
type.[8]float64 SRODATA dupok size=44
	0x0000 00 00 00 40 00 00 00 00 d7 3c 41 9d 02 04 04 91  ...@.....<A.....
	0x0010 00 00 00 00 00 00 00 00 00 00 00 00 00 00 00 00  ................
	0x0020 00 00 00 00 00 00 00 00 00 00 00 08              ............
	rel 16+4 t=1 type..alg.[8]float64+0
	rel 20+4 t=1 runtime.gcbits.+0
	rel 24+4 t=5 type..namedata.*[8]float64-+0
	rel 28+4 t=6 type.*[8]float64+0
	rel 32+4 t=1 type.float64+0
	rel 36+4 t=1 type.[]float64+0
type..importpath.math. SRODATA dupok size=7
	0x0000 00 00 04 6d 61 74 68                             ...math
gclocals·2002e13acf59079a1a5782c918894579 SRODATA dupok size=8
	0x0000 00 00 00 01 00 00 00 00                          ........
gclocals·de48d210b7ddc49c6e546e3d9e5b0241 SRODATA dupok size=10
	0x0000 00 00 00 02 00 00 00 01 01 00                    ..........
gclocals·7434ac78ed715a61a5258eadde9d1323 SRODATA dupok size=8
	0x0000 00 00 00 02 00 00 00 00                          ........
gclocals·2d459d071cdf96237b17fe6e1c1b64a9 SRODATA dupok size=11
	0x0000 00 00 00 03 00 00 00 04 00 08 04                 ...........
gclocals·2cd2818971107a35184433ecc5b7ee05 SRODATA dupok size=11
	0x0000 00 00 00 03 00 00 00 02 03 02 00                 ...........
gclocals·620d97ec6a973339b0251c29b0e87144 SRODATA dupok size=8
	0x0000 00 00 00 03 00 00 00 00                          ........
gclocals·467e2a72decae72ed91c1d72a6f742c7 SRODATA dupok size=13
	0x0000 00 00 00 05 00 00 00 05 00 01 03 13 0b           .............
