# command-line-arguments
"".LeadingZeros STEXT nosplit size=33 args=0x10 locals=0x0
	0x0000 00000 (/Users/fpf/Downloads/go1.11.1/test/codegen/mathbits.go:15)	TEXT	"".LeadingZeros(SB), NOSPLIT, $0-16
	0x0000 00000 (/Users/fpf/Downloads/go1.11.1/test/codegen/mathbits.go:15)	FUNCDATA	$0, gclocals·33cdeccccebe80329f1fdbee7f5874cb(SB)
	0x0000 00000 (/Users/fpf/Downloads/go1.11.1/test/codegen/mathbits.go:15)	FUNCDATA	$1, gclocals·33cdeccccebe80329f1fdbee7f5874cb(SB)
	0x0000 00000 (/Users/fpf/Downloads/go1.11.1/test/codegen/mathbits.go:15)	FUNCDATA	$3, gclocals·33cdeccccebe80329f1fdbee7f5874cb(SB)
	0x0000 00000 (/Users/fpf/Downloads/go1.11.1/test/codegen/mathbits.go:20)	PCDATA	$2, $0
	0x0000 00000 (/Users/fpf/Downloads/go1.11.1/test/codegen/mathbits.go:20)	PCDATA	$0, $0
	0x0000 00000 (/Users/fpf/Downloads/go1.11.1/test/codegen/mathbits.go:20)	MOVQ	"".n+8(SP), AX
	0x0005 00005 (/Users/fpf/Downloads/go1.11.1/test/codegen/mathbits.go:20)	BSRQ	AX, AX
	0x0009 00009 (/Users/fpf/Downloads/go1.11.1/test/codegen/mathbits.go:20)	MOVQ	$-1, CX
	0x0010 00016 (/Users/fpf/Downloads/go1.11.1/test/codegen/mathbits.go:20)	CMOVQEQ	CX, AX
	0x0014 00020 (/Users/fpf/Downloads/go1.11.1/test/codegen/mathbits.go:20)	ADDQ	$-63, AX
	0x0018 00024 (/Users/fpf/Downloads/go1.11.1/test/codegen/mathbits.go:20)	NEGQ	AX
	0x001b 00027 (/Users/fpf/Downloads/go1.11.1/test/codegen/mathbits.go:20)	MOVQ	AX, "".~r1+16(SP)
	0x0020 00032 (/Users/fpf/Downloads/go1.11.1/test/codegen/mathbits.go:20)	RET
	0x0000 48 8b 44 24 08 48 0f bd c0 48 c7 c1 ff ff ff ff  H.D$.H...H......
	0x0010 48 0f 44 c1 48 83 c0 c1 48 f7 d8 48 89 44 24 10  H.D.H...H..H.D$.
	0x0020 c3                                               .
"".LeadingZeros64 STEXT nosplit size=33 args=0x10 locals=0x0
	0x0000 00000 (/Users/fpf/Downloads/go1.11.1/test/codegen/mathbits.go:23)	TEXT	"".LeadingZeros64(SB), NOSPLIT, $0-16
	0x0000 00000 (/Users/fpf/Downloads/go1.11.1/test/codegen/mathbits.go:23)	FUNCDATA	$0, gclocals·33cdeccccebe80329f1fdbee7f5874cb(SB)
	0x0000 00000 (/Users/fpf/Downloads/go1.11.1/test/codegen/mathbits.go:23)	FUNCDATA	$1, gclocals·33cdeccccebe80329f1fdbee7f5874cb(SB)
	0x0000 00000 (/Users/fpf/Downloads/go1.11.1/test/codegen/mathbits.go:23)	FUNCDATA	$3, gclocals·33cdeccccebe80329f1fdbee7f5874cb(SB)
	0x0000 00000 (/Users/fpf/Downloads/go1.11.1/test/codegen/mathbits.go:28)	PCDATA	$2, $0
	0x0000 00000 (/Users/fpf/Downloads/go1.11.1/test/codegen/mathbits.go:28)	PCDATA	$0, $0
	0x0000 00000 (/Users/fpf/Downloads/go1.11.1/test/codegen/mathbits.go:28)	MOVQ	"".n+8(SP), AX
	0x0005 00005 (/Users/fpf/Downloads/go1.11.1/test/codegen/mathbits.go:28)	BSRQ	AX, AX
	0x0009 00009 (/Users/fpf/Downloads/go1.11.1/test/codegen/mathbits.go:28)	MOVQ	$-1, CX
	0x0010 00016 (/Users/fpf/Downloads/go1.11.1/test/codegen/mathbits.go:28)	CMOVQEQ	CX, AX
	0x0014 00020 (/Users/fpf/Downloads/go1.11.1/test/codegen/mathbits.go:28)	ADDQ	$-63, AX
	0x0018 00024 (/Users/fpf/Downloads/go1.11.1/test/codegen/mathbits.go:28)	NEGQ	AX
	0x001b 00027 (/Users/fpf/Downloads/go1.11.1/test/codegen/mathbits.go:28)	MOVQ	AX, "".~r1+16(SP)
	0x0020 00032 (/Users/fpf/Downloads/go1.11.1/test/codegen/mathbits.go:28)	RET
	0x0000 48 8b 44 24 08 48 0f bd c0 48 c7 c1 ff ff ff ff  H.D$.H...H......
	0x0010 48 0f 44 c1 48 83 c0 c1 48 f7 d8 48 89 44 24 10  H.D.H...H..H.D$.
	0x0020 c3                                               .
"".LeadingZeros32 STEXT nosplit size=26 args=0x10 locals=0x0
	0x0000 00000 (/Users/fpf/Downloads/go1.11.1/test/codegen/mathbits.go:31)	TEXT	"".LeadingZeros32(SB), NOSPLIT, $0-16
	0x0000 00000 (/Users/fpf/Downloads/go1.11.1/test/codegen/mathbits.go:31)	FUNCDATA	$0, gclocals·33cdeccccebe80329f1fdbee7f5874cb(SB)
	0x0000 00000 (/Users/fpf/Downloads/go1.11.1/test/codegen/mathbits.go:31)	FUNCDATA	$1, gclocals·33cdeccccebe80329f1fdbee7f5874cb(SB)
	0x0000 00000 (/Users/fpf/Downloads/go1.11.1/test/codegen/mathbits.go:31)	FUNCDATA	$3, gclocals·33cdeccccebe80329f1fdbee7f5874cb(SB)
	0x0000 00000 (/Users/fpf/Downloads/go1.11.1/test/codegen/mathbits.go:36)	PCDATA	$2, $0
	0x0000 00000 (/Users/fpf/Downloads/go1.11.1/test/codegen/mathbits.go:36)	PCDATA	$0, $0
	0x0000 00000 (/Users/fpf/Downloads/go1.11.1/test/codegen/mathbits.go:36)	MOVL	"".n+8(SP), AX
	0x0004 00004 (/Users/fpf/Downloads/go1.11.1/test/codegen/mathbits.go:36)	LEAQ	1(AX)(AX*1), AX
	0x0009 00009 (/Users/fpf/Downloads/go1.11.1/test/codegen/mathbits.go:36)	BSRQ	AX, AX
	0x000d 00013 (/Users/fpf/Downloads/go1.11.1/test/codegen/mathbits.go:36)	ADDQ	$-32, AX
	0x0011 00017 (/Users/fpf/Downloads/go1.11.1/test/codegen/mathbits.go:36)	NEGQ	AX
	0x0014 00020 (/Users/fpf/Downloads/go1.11.1/test/codegen/mathbits.go:36)	MOVQ	AX, "".~r1+16(SP)
	0x0019 00025 (/Users/fpf/Downloads/go1.11.1/test/codegen/mathbits.go:36)	RET
	0x0000 8b 44 24 08 48 8d 44 00 01 48 0f bd c0 48 83 c0  .D$.H.D..H...H..
	0x0010 e0 48 f7 d8 48 89 44 24 10 c3                    .H..H.D$..
"".LeadingZeros16 STEXT nosplit size=28 args=0x10 locals=0x0
	0x0000 00000 (/Users/fpf/Downloads/go1.11.1/test/codegen/mathbits.go:39)	TEXT	"".LeadingZeros16(SB), NOSPLIT, $0-16
	0x0000 00000 (/Users/fpf/Downloads/go1.11.1/test/codegen/mathbits.go:39)	FUNCDATA	$0, gclocals·33cdeccccebe80329f1fdbee7f5874cb(SB)
	0x0000 00000 (/Users/fpf/Downloads/go1.11.1/test/codegen/mathbits.go:39)	FUNCDATA	$1, gclocals·33cdeccccebe80329f1fdbee7f5874cb(SB)
	0x0000 00000 (/Users/fpf/Downloads/go1.11.1/test/codegen/mathbits.go:39)	FUNCDATA	$3, gclocals·33cdeccccebe80329f1fdbee7f5874cb(SB)
	0x0000 00000 (/Users/fpf/Downloads/go1.11.1/test/codegen/mathbits.go:44)	PCDATA	$2, $0
	0x0000 00000 (/Users/fpf/Downloads/go1.11.1/test/codegen/mathbits.go:44)	PCDATA	$0, $0
	0x0000 00000 (/Users/fpf/Downloads/go1.11.1/test/codegen/mathbits.go:44)	MOVWLZX	"".n+8(SP), AX
	0x0005 00005 (/Users/fpf/Downloads/go1.11.1/test/codegen/mathbits.go:44)	MOVWLZX	AX, AX
	0x0008 00008 (/Users/fpf/Downloads/go1.11.1/test/codegen/mathbits.go:44)	LEAL	1(AX)(AX*1), AX
	0x000c 00012 (/Users/fpf/Downloads/go1.11.1/test/codegen/mathbits.go:44)	BSRL	AX, AX
	0x000f 00015 (/Users/fpf/Downloads/go1.11.1/test/codegen/mathbits.go:44)	ADDQ	$-16, AX
	0x0013 00019 (/Users/fpf/Downloads/go1.11.1/test/codegen/mathbits.go:44)	NEGQ	AX
	0x0016 00022 (/Users/fpf/Downloads/go1.11.1/test/codegen/mathbits.go:44)	MOVQ	AX, "".~r1+16(SP)
	0x001b 00027 (/Users/fpf/Downloads/go1.11.1/test/codegen/mathbits.go:44)	RET
	0x0000 0f b7 44 24 08 0f b7 c0 8d 44 00 01 0f bd c0 48  ..D$.....D.....H
	0x0010 83 c0 f0 48 f7 d8 48 89 44 24 10 c3              ...H..H.D$..
"".LeadingZeros8 STEXT nosplit size=28 args=0x10 locals=0x0
	0x0000 00000 (/Users/fpf/Downloads/go1.11.1/test/codegen/mathbits.go:47)	TEXT	"".LeadingZeros8(SB), NOSPLIT, $0-16
	0x0000 00000 (/Users/fpf/Downloads/go1.11.1/test/codegen/mathbits.go:47)	FUNCDATA	$0, gclocals·33cdeccccebe80329f1fdbee7f5874cb(SB)
	0x0000 00000 (/Users/fpf/Downloads/go1.11.1/test/codegen/mathbits.go:47)	FUNCDATA	$1, gclocals·33cdeccccebe80329f1fdbee7f5874cb(SB)
	0x0000 00000 (/Users/fpf/Downloads/go1.11.1/test/codegen/mathbits.go:47)	FUNCDATA	$3, gclocals·33cdeccccebe80329f1fdbee7f5874cb(SB)
	0x0000 00000 (/Users/fpf/Downloads/go1.11.1/test/codegen/mathbits.go:52)	PCDATA	$2, $0
	0x0000 00000 (/Users/fpf/Downloads/go1.11.1/test/codegen/mathbits.go:52)	PCDATA	$0, $0
	0x0000 00000 (/Users/fpf/Downloads/go1.11.1/test/codegen/mathbits.go:52)	MOVBLZX	"".n+8(SP), AX
	0x0005 00005 (/Users/fpf/Downloads/go1.11.1/test/codegen/mathbits.go:52)	MOVBLZX	AL, AX
	0x0008 00008 (/Users/fpf/Downloads/go1.11.1/test/codegen/mathbits.go:52)	LEAL	1(AX)(AX*1), AX
	0x000c 00012 (/Users/fpf/Downloads/go1.11.1/test/codegen/mathbits.go:52)	BSRL	AX, AX
	0x000f 00015 (/Users/fpf/Downloads/go1.11.1/test/codegen/mathbits.go:52)	ADDQ	$-8, AX
	0x0013 00019 (/Users/fpf/Downloads/go1.11.1/test/codegen/mathbits.go:52)	NEGQ	AX
	0x0016 00022 (/Users/fpf/Downloads/go1.11.1/test/codegen/mathbits.go:52)	MOVQ	AX, "".~r1+16(SP)
	0x001b 00027 (/Users/fpf/Downloads/go1.11.1/test/codegen/mathbits.go:52)	RET
	0x0000 0f b6 44 24 08 0f b6 c0 8d 44 00 01 0f bd c0 48  ..D$.....D.....H
	0x0010 83 c0 f8 48 f7 d8 48 89 44 24 10 c3              ...H..H.D$..
"".Len STEXT nosplit size=29 args=0x10 locals=0x0
	0x0000 00000 (/Users/fpf/Downloads/go1.11.1/test/codegen/mathbits.go:59)	TEXT	"".Len(SB), NOSPLIT, $0-16
	0x0000 00000 (/Users/fpf/Downloads/go1.11.1/test/codegen/mathbits.go:59)	FUNCDATA	$0, gclocals·33cdeccccebe80329f1fdbee7f5874cb(SB)
	0x0000 00000 (/Users/fpf/Downloads/go1.11.1/test/codegen/mathbits.go:59)	FUNCDATA	$1, gclocals·33cdeccccebe80329f1fdbee7f5874cb(SB)
	0x0000 00000 (/Users/fpf/Downloads/go1.11.1/test/codegen/mathbits.go:59)	FUNCDATA	$3, gclocals·33cdeccccebe80329f1fdbee7f5874cb(SB)
	0x0000 00000 (/Users/fpf/Downloads/go1.11.1/test/codegen/mathbits.go:64)	PCDATA	$2, $0
	0x0000 00000 (/Users/fpf/Downloads/go1.11.1/test/codegen/mathbits.go:64)	PCDATA	$0, $0
	0x0000 00000 (/Users/fpf/Downloads/go1.11.1/test/codegen/mathbits.go:64)	MOVQ	"".n+8(SP), AX
	0x0005 00005 (/Users/fpf/Downloads/go1.11.1/test/codegen/mathbits.go:64)	BSRQ	AX, AX
	0x0009 00009 (/Users/fpf/Downloads/go1.11.1/test/codegen/mathbits.go:64)	MOVQ	$-1, CX
	0x0010 00016 (/Users/fpf/Downloads/go1.11.1/test/codegen/mathbits.go:64)	CMOVQEQ	CX, AX
	0x0014 00020 (/Users/fpf/Downloads/go1.11.1/test/codegen/mathbits.go:64)	INCQ	AX
	0x0017 00023 (/Users/fpf/Downloads/go1.11.1/test/codegen/mathbits.go:64)	MOVQ	AX, "".~r1+16(SP)
	0x001c 00028 (/Users/fpf/Downloads/go1.11.1/test/codegen/mathbits.go:64)	RET
	0x0000 48 8b 44 24 08 48 0f bd c0 48 c7 c1 ff ff ff ff  H.D$.H...H......
	0x0010 48 0f 44 c1 48 ff c0 48 89 44 24 10 c3           H.D.H..H.D$..
"".Len64 STEXT nosplit size=29 args=0x10 locals=0x0
	0x0000 00000 (/Users/fpf/Downloads/go1.11.1/test/codegen/mathbits.go:67)	TEXT	"".Len64(SB), NOSPLIT, $0-16
	0x0000 00000 (/Users/fpf/Downloads/go1.11.1/test/codegen/mathbits.go:67)	FUNCDATA	$0, gclocals·33cdeccccebe80329f1fdbee7f5874cb(SB)
	0x0000 00000 (/Users/fpf/Downloads/go1.11.1/test/codegen/mathbits.go:67)	FUNCDATA	$1, gclocals·33cdeccccebe80329f1fdbee7f5874cb(SB)
	0x0000 00000 (/Users/fpf/Downloads/go1.11.1/test/codegen/mathbits.go:67)	FUNCDATA	$3, gclocals·33cdeccccebe80329f1fdbee7f5874cb(SB)
	0x0000 00000 (/Users/fpf/Downloads/go1.11.1/test/codegen/mathbits.go:72)	PCDATA	$2, $0
	0x0000 00000 (/Users/fpf/Downloads/go1.11.1/test/codegen/mathbits.go:72)	PCDATA	$0, $0
	0x0000 00000 (/Users/fpf/Downloads/go1.11.1/test/codegen/mathbits.go:72)	MOVQ	"".n+8(SP), AX
	0x0005 00005 (/Users/fpf/Downloads/go1.11.1/test/codegen/mathbits.go:72)	BSRQ	AX, AX
	0x0009 00009 (/Users/fpf/Downloads/go1.11.1/test/codegen/mathbits.go:72)	MOVQ	$-1, CX
	0x0010 00016 (/Users/fpf/Downloads/go1.11.1/test/codegen/mathbits.go:72)	CMOVQEQ	CX, AX
	0x0014 00020 (/Users/fpf/Downloads/go1.11.1/test/codegen/mathbits.go:72)	INCQ	AX
	0x0017 00023 (/Users/fpf/Downloads/go1.11.1/test/codegen/mathbits.go:72)	MOVQ	AX, "".~r1+16(SP)
	0x001c 00028 (/Users/fpf/Downloads/go1.11.1/test/codegen/mathbits.go:72)	RET
	0x0000 48 8b 44 24 08 48 0f bd c0 48 c7 c1 ff ff ff ff  H.D$.H...H......
	0x0010 48 0f 44 c1 48 ff c0 48 89 44 24 10 c3           H.D.H..H.D$..
"".Len32 STEXT nosplit size=19 args=0x10 locals=0x0
	0x0000 00000 (/Users/fpf/Downloads/go1.11.1/test/codegen/mathbits.go:75)	TEXT	"".Len32(SB), NOSPLIT, $0-16
	0x0000 00000 (/Users/fpf/Downloads/go1.11.1/test/codegen/mathbits.go:75)	FUNCDATA	$0, gclocals·33cdeccccebe80329f1fdbee7f5874cb(SB)
	0x0000 00000 (/Users/fpf/Downloads/go1.11.1/test/codegen/mathbits.go:75)	FUNCDATA	$1, gclocals·33cdeccccebe80329f1fdbee7f5874cb(SB)
	0x0000 00000 (/Users/fpf/Downloads/go1.11.1/test/codegen/mathbits.go:75)	FUNCDATA	$3, gclocals·33cdeccccebe80329f1fdbee7f5874cb(SB)
	0x0000 00000 (/Users/fpf/Downloads/go1.11.1/test/codegen/mathbits.go:80)	PCDATA	$2, $0
	0x0000 00000 (/Users/fpf/Downloads/go1.11.1/test/codegen/mathbits.go:80)	PCDATA	$0, $0
	0x0000 00000 (/Users/fpf/Downloads/go1.11.1/test/codegen/mathbits.go:80)	MOVL	"".n+8(SP), AX
	0x0004 00004 (/Users/fpf/Downloads/go1.11.1/test/codegen/mathbits.go:80)	LEAQ	1(AX)(AX*1), AX
	0x0009 00009 (/Users/fpf/Downloads/go1.11.1/test/codegen/mathbits.go:80)	BSRQ	AX, AX
	0x000d 00013 (/Users/fpf/Downloads/go1.11.1/test/codegen/mathbits.go:80)	MOVQ	AX, "".~r1+16(SP)
	0x0012 00018 (/Users/fpf/Downloads/go1.11.1/test/codegen/mathbits.go:80)	RET
	0x0000 8b 44 24 08 48 8d 44 00 01 48 0f bd c0 48 89 44  .D$.H.D..H...H.D
	0x0010 24 10 c3                                         $..
"".Len16 STEXT nosplit size=21 args=0x10 locals=0x0
	0x0000 00000 (/Users/fpf/Downloads/go1.11.1/test/codegen/mathbits.go:83)	TEXT	"".Len16(SB), NOSPLIT, $0-16
	0x0000 00000 (/Users/fpf/Downloads/go1.11.1/test/codegen/mathbits.go:83)	FUNCDATA	$0, gclocals·33cdeccccebe80329f1fdbee7f5874cb(SB)
	0x0000 00000 (/Users/fpf/Downloads/go1.11.1/test/codegen/mathbits.go:83)	FUNCDATA	$1, gclocals·33cdeccccebe80329f1fdbee7f5874cb(SB)
	0x0000 00000 (/Users/fpf/Downloads/go1.11.1/test/codegen/mathbits.go:83)	FUNCDATA	$3, gclocals·33cdeccccebe80329f1fdbee7f5874cb(SB)
	0x0000 00000 (/Users/fpf/Downloads/go1.11.1/test/codegen/mathbits.go:88)	PCDATA	$2, $0
	0x0000 00000 (/Users/fpf/Downloads/go1.11.1/test/codegen/mathbits.go:88)	PCDATA	$0, $0
	0x0000 00000 (/Users/fpf/Downloads/go1.11.1/test/codegen/mathbits.go:88)	MOVWLZX	"".n+8(SP), AX
	0x0005 00005 (/Users/fpf/Downloads/go1.11.1/test/codegen/mathbits.go:88)	MOVWLZX	AX, AX
	0x0008 00008 (/Users/fpf/Downloads/go1.11.1/test/codegen/mathbits.go:88)	LEAL	1(AX)(AX*1), AX
	0x000c 00012 (/Users/fpf/Downloads/go1.11.1/test/codegen/mathbits.go:88)	BSRL	AX, AX
	0x000f 00015 (/Users/fpf/Downloads/go1.11.1/test/codegen/mathbits.go:88)	MOVQ	AX, "".~r1+16(SP)
	0x0014 00020 (/Users/fpf/Downloads/go1.11.1/test/codegen/mathbits.go:88)	RET
	0x0000 0f b7 44 24 08 0f b7 c0 8d 44 00 01 0f bd c0 48  ..D$.....D.....H
	0x0010 89 44 24 10 c3                                   .D$..
"".Len8 STEXT nosplit size=21 args=0x10 locals=0x0
	0x0000 00000 (/Users/fpf/Downloads/go1.11.1/test/codegen/mathbits.go:91)	TEXT	"".Len8(SB), NOSPLIT, $0-16
	0x0000 00000 (/Users/fpf/Downloads/go1.11.1/test/codegen/mathbits.go:91)	FUNCDATA	$0, gclocals·33cdeccccebe80329f1fdbee7f5874cb(SB)
	0x0000 00000 (/Users/fpf/Downloads/go1.11.1/test/codegen/mathbits.go:91)	FUNCDATA	$1, gclocals·33cdeccccebe80329f1fdbee7f5874cb(SB)
	0x0000 00000 (/Users/fpf/Downloads/go1.11.1/test/codegen/mathbits.go:91)	FUNCDATA	$3, gclocals·33cdeccccebe80329f1fdbee7f5874cb(SB)
	0x0000 00000 (/Users/fpf/Downloads/go1.11.1/test/codegen/mathbits.go:96)	PCDATA	$2, $0
	0x0000 00000 (/Users/fpf/Downloads/go1.11.1/test/codegen/mathbits.go:96)	PCDATA	$0, $0
	0x0000 00000 (/Users/fpf/Downloads/go1.11.1/test/codegen/mathbits.go:96)	MOVBLZX	"".n+8(SP), AX
	0x0005 00005 (/Users/fpf/Downloads/go1.11.1/test/codegen/mathbits.go:96)	MOVBLZX	AL, AX
	0x0008 00008 (/Users/fpf/Downloads/go1.11.1/test/codegen/mathbits.go:96)	LEAL	1(AX)(AX*1), AX
	0x000c 00012 (/Users/fpf/Downloads/go1.11.1/test/codegen/mathbits.go:96)	BSRL	AX, AX
	0x000f 00015 (/Users/fpf/Downloads/go1.11.1/test/codegen/mathbits.go:96)	MOVQ	AX, "".~r1+16(SP)
	0x0014 00020 (/Users/fpf/Downloads/go1.11.1/test/codegen/mathbits.go:96)	RET
	0x0000 0f b6 44 24 08 0f b6 c0 8d 44 00 01 0f bd c0 48  ..D$.....D.....H
	0x0010 89 44 24 10 c3                                   .D$..
"".OnesCount STEXT size=94 args=0x10 locals=0x18
	0x0000 00000 (/Users/fpf/Downloads/go1.11.1/test/codegen/mathbits.go:103)	TEXT	"".OnesCount(SB), $24-16
	0x0000 00000 (/Users/fpf/Downloads/go1.11.1/test/codegen/mathbits.go:103)	MOVQ	(TLS), CX
	0x0009 00009 (/Users/fpf/Downloads/go1.11.1/test/codegen/mathbits.go:103)	CMPQ	SP, 16(CX)
	0x000d 00013 (/Users/fpf/Downloads/go1.11.1/test/codegen/mathbits.go:103)	JLS	87
	0x000f 00015 (/Users/fpf/Downloads/go1.11.1/test/codegen/mathbits.go:103)	SUBQ	$24, SP
	0x0013 00019 (/Users/fpf/Downloads/go1.11.1/test/codegen/mathbits.go:103)	MOVQ	BP, 16(SP)
	0x0018 00024 (/Users/fpf/Downloads/go1.11.1/test/codegen/mathbits.go:103)	LEAQ	16(SP), BP
	0x001d 00029 (/Users/fpf/Downloads/go1.11.1/test/codegen/mathbits.go:103)	FUNCDATA	$0, gclocals·33cdeccccebe80329f1fdbee7f5874cb(SB)
	0x001d 00029 (/Users/fpf/Downloads/go1.11.1/test/codegen/mathbits.go:103)	FUNCDATA	$1, gclocals·33cdeccccebe80329f1fdbee7f5874cb(SB)
	0x001d 00029 (/Users/fpf/Downloads/go1.11.1/test/codegen/mathbits.go:103)	FUNCDATA	$3, gclocals·9fb7f0986f647f17cb53dda1484e0f7a(SB)
	0x001d 00029 (/Users/fpf/Downloads/go1.11.1/test/codegen/mathbits.go:106)	PCDATA	$2, $1
	0x001d 00029 (/Users/fpf/Downloads/go1.11.1/test/codegen/mathbits.go:106)	PCDATA	$0, $0
	0x001d 00029 (/Users/fpf/Downloads/go1.11.1/test/codegen/mathbits.go:106)	LEAQ	runtime.support_popcnt(SB), AX
	0x0024 00036 (/Users/fpf/Downloads/go1.11.1/test/codegen/mathbits.go:106)	PCDATA	$2, $0
	0x0024 00036 (/Users/fpf/Downloads/go1.11.1/test/codegen/mathbits.go:106)	CMPB	(AX), $0
	0x0027 00039 (/Users/fpf/Downloads/go1.11.1/test/codegen/mathbits.go:106)	JEQ	66
	0x0029 00041 (/Users/fpf/Downloads/go1.11.1/test/codegen/mathbits.go:106)	MOVQ	"".n+32(SP), AX
	0x002e 00046 (/Users/fpf/Downloads/go1.11.1/test/codegen/mathbits.go:106)	POPCNTQ	AX, AX
	0x0033 00051 (/Users/fpf/Downloads/go1.11.1/test/codegen/mathbits.go:106)	MOVQ	AX, "".~r1+40(SP)
	0x0038 00056 (/Users/fpf/Downloads/go1.11.1/test/codegen/mathbits.go:106)	MOVQ	16(SP), BP
	0x003d 00061 (/Users/fpf/Downloads/go1.11.1/test/codegen/mathbits.go:106)	ADDQ	$24, SP
	0x0041 00065 (/Users/fpf/Downloads/go1.11.1/test/codegen/mathbits.go:106)	RET
	0x0042 00066 (/Users/fpf/Downloads/go1.11.1/test/codegen/mathbits.go:106)	MOVQ	"".n+32(SP), AX
	0x0047 00071 (/Users/fpf/Downloads/go1.11.1/test/codegen/mathbits.go:106)	MOVQ	AX, (SP)
	0x004b 00075 (/Users/fpf/Downloads/go1.11.1/test/codegen/mathbits.go:106)	CALL	math/bits.OnesCount(SB)
	0x0050 00080 (/Users/fpf/Downloads/go1.11.1/test/codegen/mathbits.go:106)	MOVQ	8(SP), AX
	0x0055 00085 (/Users/fpf/Downloads/go1.11.1/test/codegen/mathbits.go:106)	JMP	51
	0x0057 00087 (/Users/fpf/Downloads/go1.11.1/test/codegen/mathbits.go:106)	NOP
	0x0057 00087 (/Users/fpf/Downloads/go1.11.1/test/codegen/mathbits.go:103)	PCDATA	$0, $-1
	0x0057 00087 (/Users/fpf/Downloads/go1.11.1/test/codegen/mathbits.go:103)	PCDATA	$2, $-1
	0x0057 00087 (/Users/fpf/Downloads/go1.11.1/test/codegen/mathbits.go:103)	CALL	runtime.morestack_noctxt(SB)
	0x005c 00092 (/Users/fpf/Downloads/go1.11.1/test/codegen/mathbits.go:103)	JMP	0
	0x0000 64 48 8b 0c 25 00 00 00 00 48 3b 61 10 76 48 48  dH..%....H;a.vHH
	0x0010 83 ec 18 48 89 6c 24 10 48 8d 6c 24 10 48 8d 05  ...H.l$.H.l$.H..
	0x0020 00 00 00 00 80 38 00 74 19 48 8b 44 24 20 f3 48  .....8.t.H.D$ .H
	0x0030 0f b8 c0 48 89 44 24 28 48 8b 6c 24 10 48 83 c4  ...H.D$(H.l$.H..
	0x0040 18 c3 48 8b 44 24 20 48 89 04 24 e8 00 00 00 00  ..H.D$ H..$.....
	0x0050 48 8b 44 24 08 eb dc e8 00 00 00 00 eb a2        H.D$..........
	rel 5+4 t=16 TLS+0
	rel 32+4 t=15 runtime.support_popcnt+0
	rel 76+4 t=8 math/bits.OnesCount+0
	rel 88+4 t=8 runtime.morestack_noctxt+0
"".OnesCount64 STEXT size=94 args=0x10 locals=0x18
	0x0000 00000 (/Users/fpf/Downloads/go1.11.1/test/codegen/mathbits.go:109)	TEXT	"".OnesCount64(SB), $24-16
	0x0000 00000 (/Users/fpf/Downloads/go1.11.1/test/codegen/mathbits.go:109)	MOVQ	(TLS), CX
	0x0009 00009 (/Users/fpf/Downloads/go1.11.1/test/codegen/mathbits.go:109)	CMPQ	SP, 16(CX)
	0x000d 00013 (/Users/fpf/Downloads/go1.11.1/test/codegen/mathbits.go:109)	JLS	87
	0x000f 00015 (/Users/fpf/Downloads/go1.11.1/test/codegen/mathbits.go:109)	SUBQ	$24, SP
	0x0013 00019 (/Users/fpf/Downloads/go1.11.1/test/codegen/mathbits.go:109)	MOVQ	BP, 16(SP)
	0x0018 00024 (/Users/fpf/Downloads/go1.11.1/test/codegen/mathbits.go:109)	LEAQ	16(SP), BP
	0x001d 00029 (/Users/fpf/Downloads/go1.11.1/test/codegen/mathbits.go:109)	FUNCDATA	$0, gclocals·33cdeccccebe80329f1fdbee7f5874cb(SB)
	0x001d 00029 (/Users/fpf/Downloads/go1.11.1/test/codegen/mathbits.go:109)	FUNCDATA	$1, gclocals·33cdeccccebe80329f1fdbee7f5874cb(SB)
	0x001d 00029 (/Users/fpf/Downloads/go1.11.1/test/codegen/mathbits.go:109)	FUNCDATA	$3, gclocals·9fb7f0986f647f17cb53dda1484e0f7a(SB)
	0x001d 00029 (/Users/fpf/Downloads/go1.11.1/test/codegen/mathbits.go:112)	PCDATA	$2, $1
	0x001d 00029 (/Users/fpf/Downloads/go1.11.1/test/codegen/mathbits.go:112)	PCDATA	$0, $0
	0x001d 00029 (/Users/fpf/Downloads/go1.11.1/test/codegen/mathbits.go:112)	LEAQ	runtime.support_popcnt(SB), AX
	0x0024 00036 (/Users/fpf/Downloads/go1.11.1/test/codegen/mathbits.go:112)	PCDATA	$2, $0
	0x0024 00036 (/Users/fpf/Downloads/go1.11.1/test/codegen/mathbits.go:112)	CMPB	(AX), $0
	0x0027 00039 (/Users/fpf/Downloads/go1.11.1/test/codegen/mathbits.go:112)	JEQ	66
	0x0029 00041 (/Users/fpf/Downloads/go1.11.1/test/codegen/mathbits.go:112)	MOVQ	"".n+32(SP), AX
	0x002e 00046 (/Users/fpf/Downloads/go1.11.1/test/codegen/mathbits.go:112)	POPCNTQ	AX, AX
	0x0033 00051 (/Users/fpf/Downloads/go1.11.1/test/codegen/mathbits.go:112)	MOVQ	AX, "".~r1+40(SP)
	0x0038 00056 (/Users/fpf/Downloads/go1.11.1/test/codegen/mathbits.go:112)	MOVQ	16(SP), BP
	0x003d 00061 (/Users/fpf/Downloads/go1.11.1/test/codegen/mathbits.go:112)	ADDQ	$24, SP
	0x0041 00065 (/Users/fpf/Downloads/go1.11.1/test/codegen/mathbits.go:112)	RET
	0x0042 00066 (/Users/fpf/Downloads/go1.11.1/test/codegen/mathbits.go:112)	MOVQ	"".n+32(SP), AX
	0x0047 00071 (/Users/fpf/Downloads/go1.11.1/test/codegen/mathbits.go:112)	MOVQ	AX, (SP)
	0x004b 00075 (/Users/fpf/Downloads/go1.11.1/test/codegen/mathbits.go:112)	CALL	math/bits.OnesCount64(SB)
	0x0050 00080 (/Users/fpf/Downloads/go1.11.1/test/codegen/mathbits.go:112)	MOVQ	8(SP), AX
	0x0055 00085 (/Users/fpf/Downloads/go1.11.1/test/codegen/mathbits.go:112)	JMP	51
	0x0057 00087 (/Users/fpf/Downloads/go1.11.1/test/codegen/mathbits.go:112)	NOP
	0x0057 00087 (/Users/fpf/Downloads/go1.11.1/test/codegen/mathbits.go:109)	PCDATA	$0, $-1
	0x0057 00087 (/Users/fpf/Downloads/go1.11.1/test/codegen/mathbits.go:109)	PCDATA	$2, $-1
	0x0057 00087 (/Users/fpf/Downloads/go1.11.1/test/codegen/mathbits.go:109)	CALL	runtime.morestack_noctxt(SB)
	0x005c 00092 (/Users/fpf/Downloads/go1.11.1/test/codegen/mathbits.go:109)	JMP	0
	0x0000 64 48 8b 0c 25 00 00 00 00 48 3b 61 10 76 48 48  dH..%....H;a.vHH
	0x0010 83 ec 18 48 89 6c 24 10 48 8d 6c 24 10 48 8d 05  ...H.l$.H.l$.H..
	0x0020 00 00 00 00 80 38 00 74 19 48 8b 44 24 20 f3 48  .....8.t.H.D$ .H
	0x0030 0f b8 c0 48 89 44 24 28 48 8b 6c 24 10 48 83 c4  ...H.D$(H.l$.H..
	0x0040 18 c3 48 8b 44 24 20 48 89 04 24 e8 00 00 00 00  ..H.D$ H..$.....
	0x0050 48 8b 44 24 08 eb dc e8 00 00 00 00 eb a2        H.D$..........
	rel 5+4 t=16 TLS+0
	rel 32+4 t=15 runtime.support_popcnt+0
	rel 76+4 t=8 math/bits.OnesCount64+0
	rel 88+4 t=8 runtime.morestack_noctxt+0
"".OnesCount32 STEXT size=90 args=0x10 locals=0x18
	0x0000 00000 (/Users/fpf/Downloads/go1.11.1/test/codegen/mathbits.go:115)	TEXT	"".OnesCount32(SB), $24-16
	0x0000 00000 (/Users/fpf/Downloads/go1.11.1/test/codegen/mathbits.go:115)	MOVQ	(TLS), CX
	0x0009 00009 (/Users/fpf/Downloads/go1.11.1/test/codegen/mathbits.go:115)	CMPQ	SP, 16(CX)
	0x000d 00013 (/Users/fpf/Downloads/go1.11.1/test/codegen/mathbits.go:115)	JLS	83
	0x000f 00015 (/Users/fpf/Downloads/go1.11.1/test/codegen/mathbits.go:115)	SUBQ	$24, SP
	0x0013 00019 (/Users/fpf/Downloads/go1.11.1/test/codegen/mathbits.go:115)	MOVQ	BP, 16(SP)
	0x0018 00024 (/Users/fpf/Downloads/go1.11.1/test/codegen/mathbits.go:115)	LEAQ	16(SP), BP
	0x001d 00029 (/Users/fpf/Downloads/go1.11.1/test/codegen/mathbits.go:115)	FUNCDATA	$0, gclocals·33cdeccccebe80329f1fdbee7f5874cb(SB)
	0x001d 00029 (/Users/fpf/Downloads/go1.11.1/test/codegen/mathbits.go:115)	FUNCDATA	$1, gclocals·33cdeccccebe80329f1fdbee7f5874cb(SB)
	0x001d 00029 (/Users/fpf/Downloads/go1.11.1/test/codegen/mathbits.go:115)	FUNCDATA	$3, gclocals·9fb7f0986f647f17cb53dda1484e0f7a(SB)
	0x001d 00029 (/Users/fpf/Downloads/go1.11.1/test/codegen/mathbits.go:118)	PCDATA	$2, $1
	0x001d 00029 (/Users/fpf/Downloads/go1.11.1/test/codegen/mathbits.go:118)	PCDATA	$0, $0
	0x001d 00029 (/Users/fpf/Downloads/go1.11.1/test/codegen/mathbits.go:118)	LEAQ	runtime.support_popcnt(SB), AX
	0x0024 00036 (/Users/fpf/Downloads/go1.11.1/test/codegen/mathbits.go:118)	PCDATA	$2, $0
	0x0024 00036 (/Users/fpf/Downloads/go1.11.1/test/codegen/mathbits.go:118)	CMPB	(AX), $0
	0x0027 00039 (/Users/fpf/Downloads/go1.11.1/test/codegen/mathbits.go:118)	JEQ	64
	0x0029 00041 (/Users/fpf/Downloads/go1.11.1/test/codegen/mathbits.go:118)	MOVL	"".n+32(SP), AX
	0x002d 00045 (/Users/fpf/Downloads/go1.11.1/test/codegen/mathbits.go:118)	POPCNTL	AX, AX
	0x0031 00049 (/Users/fpf/Downloads/go1.11.1/test/codegen/mathbits.go:118)	MOVQ	AX, "".~r1+40(SP)
	0x0036 00054 (/Users/fpf/Downloads/go1.11.1/test/codegen/mathbits.go:118)	MOVQ	16(SP), BP
	0x003b 00059 (/Users/fpf/Downloads/go1.11.1/test/codegen/mathbits.go:118)	ADDQ	$24, SP
	0x003f 00063 (/Users/fpf/Downloads/go1.11.1/test/codegen/mathbits.go:118)	RET
	0x0040 00064 (/Users/fpf/Downloads/go1.11.1/test/codegen/mathbits.go:118)	MOVL	"".n+32(SP), AX
	0x0044 00068 (/Users/fpf/Downloads/go1.11.1/test/codegen/mathbits.go:118)	MOVL	AX, (SP)
	0x0047 00071 (/Users/fpf/Downloads/go1.11.1/test/codegen/mathbits.go:118)	CALL	math/bits.OnesCount32(SB)
	0x004c 00076 (/Users/fpf/Downloads/go1.11.1/test/codegen/mathbits.go:118)	MOVQ	8(SP), AX
	0x0051 00081 (/Users/fpf/Downloads/go1.11.1/test/codegen/mathbits.go:118)	JMP	49
	0x0053 00083 (/Users/fpf/Downloads/go1.11.1/test/codegen/mathbits.go:118)	NOP
	0x0053 00083 (/Users/fpf/Downloads/go1.11.1/test/codegen/mathbits.go:115)	PCDATA	$0, $-1
	0x0053 00083 (/Users/fpf/Downloads/go1.11.1/test/codegen/mathbits.go:115)	PCDATA	$2, $-1
	0x0053 00083 (/Users/fpf/Downloads/go1.11.1/test/codegen/mathbits.go:115)	CALL	runtime.morestack_noctxt(SB)
	0x0058 00088 (/Users/fpf/Downloads/go1.11.1/test/codegen/mathbits.go:115)	JMP	0
	0x0000 64 48 8b 0c 25 00 00 00 00 48 3b 61 10 76 44 48  dH..%....H;a.vDH
	0x0010 83 ec 18 48 89 6c 24 10 48 8d 6c 24 10 48 8d 05  ...H.l$.H.l$.H..
	0x0020 00 00 00 00 80 38 00 74 17 8b 44 24 20 f3 0f b8  .....8.t..D$ ...
	0x0030 c0 48 89 44 24 28 48 8b 6c 24 10 48 83 c4 18 c3  .H.D$(H.l$.H....
	0x0040 8b 44 24 20 89 04 24 e8 00 00 00 00 48 8b 44 24  .D$ ..$.....H.D$
	0x0050 08 eb de e8 00 00 00 00 eb a6                    ..........
	rel 5+4 t=16 TLS+0
	rel 32+4 t=15 runtime.support_popcnt+0
	rel 72+4 t=8 math/bits.OnesCount32+0
	rel 84+4 t=8 runtime.morestack_noctxt+0
"".OnesCount16 STEXT size=96 args=0x10 locals=0x18
	0x0000 00000 (/Users/fpf/Downloads/go1.11.1/test/codegen/mathbits.go:121)	TEXT	"".OnesCount16(SB), $24-16
	0x0000 00000 (/Users/fpf/Downloads/go1.11.1/test/codegen/mathbits.go:121)	MOVQ	(TLS), CX
	0x0009 00009 (/Users/fpf/Downloads/go1.11.1/test/codegen/mathbits.go:121)	CMPQ	SP, 16(CX)
	0x000d 00013 (/Users/fpf/Downloads/go1.11.1/test/codegen/mathbits.go:121)	JLS	89
	0x000f 00015 (/Users/fpf/Downloads/go1.11.1/test/codegen/mathbits.go:121)	SUBQ	$24, SP
	0x0013 00019 (/Users/fpf/Downloads/go1.11.1/test/codegen/mathbits.go:121)	MOVQ	BP, 16(SP)
	0x0018 00024 (/Users/fpf/Downloads/go1.11.1/test/codegen/mathbits.go:121)	LEAQ	16(SP), BP
	0x001d 00029 (/Users/fpf/Downloads/go1.11.1/test/codegen/mathbits.go:121)	FUNCDATA	$0, gclocals·33cdeccccebe80329f1fdbee7f5874cb(SB)
	0x001d 00029 (/Users/fpf/Downloads/go1.11.1/test/codegen/mathbits.go:121)	FUNCDATA	$1, gclocals·33cdeccccebe80329f1fdbee7f5874cb(SB)
	0x001d 00029 (/Users/fpf/Downloads/go1.11.1/test/codegen/mathbits.go:121)	FUNCDATA	$3, gclocals·9fb7f0986f647f17cb53dda1484e0f7a(SB)
	0x001d 00029 (/Users/fpf/Downloads/go1.11.1/test/codegen/mathbits.go:124)	PCDATA	$2, $1
	0x001d 00029 (/Users/fpf/Downloads/go1.11.1/test/codegen/mathbits.go:124)	PCDATA	$0, $0
	0x001d 00029 (/Users/fpf/Downloads/go1.11.1/test/codegen/mathbits.go:124)	LEAQ	runtime.support_popcnt(SB), AX
	0x0024 00036 (/Users/fpf/Downloads/go1.11.1/test/codegen/mathbits.go:124)	PCDATA	$2, $0
	0x0024 00036 (/Users/fpf/Downloads/go1.11.1/test/codegen/mathbits.go:124)	CMPB	(AX), $0
	0x0027 00039 (/Users/fpf/Downloads/go1.11.1/test/codegen/mathbits.go:124)	JEQ	68
	0x0029 00041 (/Users/fpf/Downloads/go1.11.1/test/codegen/mathbits.go:124)	MOVWLZX	"".n+32(SP), AX
	0x002e 00046 (/Users/fpf/Downloads/go1.11.1/test/codegen/mathbits.go:124)	MOVWLZX	AX, AX
	0x0031 00049 (/Users/fpf/Downloads/go1.11.1/test/codegen/mathbits.go:124)	POPCNTL	AX, AX
	0x0035 00053 (/Users/fpf/Downloads/go1.11.1/test/codegen/mathbits.go:124)	MOVQ	AX, "".~r1+40(SP)
	0x003a 00058 (/Users/fpf/Downloads/go1.11.1/test/codegen/mathbits.go:124)	MOVQ	16(SP), BP
	0x003f 00063 (/Users/fpf/Downloads/go1.11.1/test/codegen/mathbits.go:124)	ADDQ	$24, SP
	0x0043 00067 (/Users/fpf/Downloads/go1.11.1/test/codegen/mathbits.go:124)	RET
	0x0044 00068 (/Users/fpf/Downloads/go1.11.1/test/codegen/mathbits.go:124)	MOVWLZX	"".n+32(SP), AX
	0x0049 00073 (/Users/fpf/Downloads/go1.11.1/test/codegen/mathbits.go:124)	MOVW	AX, (SP)
	0x004d 00077 (/Users/fpf/Downloads/go1.11.1/test/codegen/mathbits.go:124)	CALL	math/bits.OnesCount16(SB)
	0x0052 00082 (/Users/fpf/Downloads/go1.11.1/test/codegen/mathbits.go:124)	MOVQ	8(SP), AX
	0x0057 00087 (/Users/fpf/Downloads/go1.11.1/test/codegen/mathbits.go:124)	JMP	53
	0x0059 00089 (/Users/fpf/Downloads/go1.11.1/test/codegen/mathbits.go:124)	NOP
	0x0059 00089 (/Users/fpf/Downloads/go1.11.1/test/codegen/mathbits.go:121)	PCDATA	$0, $-1
	0x0059 00089 (/Users/fpf/Downloads/go1.11.1/test/codegen/mathbits.go:121)	PCDATA	$2, $-1
	0x0059 00089 (/Users/fpf/Downloads/go1.11.1/test/codegen/mathbits.go:121)	CALL	runtime.morestack_noctxt(SB)
	0x005e 00094 (/Users/fpf/Downloads/go1.11.1/test/codegen/mathbits.go:121)	JMP	0
	0x0000 64 48 8b 0c 25 00 00 00 00 48 3b 61 10 76 4a 48  dH..%....H;a.vJH
	0x0010 83 ec 18 48 89 6c 24 10 48 8d 6c 24 10 48 8d 05  ...H.l$.H.l$.H..
	0x0020 00 00 00 00 80 38 00 74 1b 0f b7 44 24 20 0f b7  .....8.t...D$ ..
	0x0030 c0 f3 0f b8 c0 48 89 44 24 28 48 8b 6c 24 10 48  .....H.D$(H.l$.H
	0x0040 83 c4 18 c3 0f b7 44 24 20 66 89 04 24 e8 00 00  ......D$ f..$...
	0x0050 00 00 48 8b 44 24 08 eb dc e8 00 00 00 00 eb a0  ..H.D$..........
	rel 5+4 t=16 TLS+0
	rel 32+4 t=15 runtime.support_popcnt+0
	rel 78+4 t=8 math/bits.OnesCount16+0
	rel 90+4 t=8 runtime.morestack_noctxt+0
"".ReverseBytes STEXT nosplit size=14 args=0x10 locals=0x0
	0x0000 00000 (/Users/fpf/Downloads/go1.11.1/test/codegen/mathbits.go:131)	TEXT	"".ReverseBytes(SB), NOSPLIT, $0-16
	0x0000 00000 (/Users/fpf/Downloads/go1.11.1/test/codegen/mathbits.go:131)	FUNCDATA	$0, gclocals·33cdeccccebe80329f1fdbee7f5874cb(SB)
	0x0000 00000 (/Users/fpf/Downloads/go1.11.1/test/codegen/mathbits.go:131)	FUNCDATA	$1, gclocals·33cdeccccebe80329f1fdbee7f5874cb(SB)
	0x0000 00000 (/Users/fpf/Downloads/go1.11.1/test/codegen/mathbits.go:131)	FUNCDATA	$3, gclocals·33cdeccccebe80329f1fdbee7f5874cb(SB)
	0x0000 00000 (/Users/fpf/Downloads/go1.11.1/test/codegen/mathbits.go:135)	PCDATA	$2, $0
	0x0000 00000 (/Users/fpf/Downloads/go1.11.1/test/codegen/mathbits.go:135)	PCDATA	$0, $0
	0x0000 00000 (/Users/fpf/Downloads/go1.11.1/test/codegen/mathbits.go:135)	MOVQ	"".n+8(SP), AX
	0x0005 00005 (/Users/fpf/Downloads/go1.11.1/test/codegen/mathbits.go:135)	BSWAPQ	AX
	0x0008 00008 (/Users/fpf/Downloads/go1.11.1/test/codegen/mathbits.go:135)	MOVQ	AX, "".~r1+16(SP)
	0x000d 00013 (/Users/fpf/Downloads/go1.11.1/test/codegen/mathbits.go:135)	RET
	0x0000 48 8b 44 24 08 48 0f c8 48 89 44 24 10 c3        H.D$.H..H.D$..
"".ReverseBytes64 STEXT nosplit size=14 args=0x10 locals=0x0
	0x0000 00000 (/Users/fpf/Downloads/go1.11.1/test/codegen/mathbits.go:138)	TEXT	"".ReverseBytes64(SB), NOSPLIT, $0-16
	0x0000 00000 (/Users/fpf/Downloads/go1.11.1/test/codegen/mathbits.go:138)	FUNCDATA	$0, gclocals·33cdeccccebe80329f1fdbee7f5874cb(SB)
	0x0000 00000 (/Users/fpf/Downloads/go1.11.1/test/codegen/mathbits.go:138)	FUNCDATA	$1, gclocals·33cdeccccebe80329f1fdbee7f5874cb(SB)
	0x0000 00000 (/Users/fpf/Downloads/go1.11.1/test/codegen/mathbits.go:138)	FUNCDATA	$3, gclocals·33cdeccccebe80329f1fdbee7f5874cb(SB)
	0x0000 00000 (/Users/fpf/Downloads/go1.11.1/test/codegen/mathbits.go:142)	PCDATA	$2, $0
	0x0000 00000 (/Users/fpf/Downloads/go1.11.1/test/codegen/mathbits.go:142)	PCDATA	$0, $0
	0x0000 00000 (/Users/fpf/Downloads/go1.11.1/test/codegen/mathbits.go:142)	MOVQ	"".n+8(SP), AX
	0x0005 00005 (/Users/fpf/Downloads/go1.11.1/test/codegen/mathbits.go:142)	BSWAPQ	AX
	0x0008 00008 (/Users/fpf/Downloads/go1.11.1/test/codegen/mathbits.go:142)	MOVQ	AX, "".~r1+16(SP)
	0x000d 00013 (/Users/fpf/Downloads/go1.11.1/test/codegen/mathbits.go:142)	RET
	0x0000 48 8b 44 24 08 48 0f c8 48 89 44 24 10 c3        H.D$.H..H.D$..
"".ReverseBytes32 STEXT nosplit size=11 args=0x10 locals=0x0
	0x0000 00000 (/Users/fpf/Downloads/go1.11.1/test/codegen/mathbits.go:145)	TEXT	"".ReverseBytes32(SB), NOSPLIT, $0-16
	0x0000 00000 (/Users/fpf/Downloads/go1.11.1/test/codegen/mathbits.go:145)	FUNCDATA	$0, gclocals·33cdeccccebe80329f1fdbee7f5874cb(SB)
	0x0000 00000 (/Users/fpf/Downloads/go1.11.1/test/codegen/mathbits.go:145)	FUNCDATA	$1, gclocals·33cdeccccebe80329f1fdbee7f5874cb(SB)
	0x0000 00000 (/Users/fpf/Downloads/go1.11.1/test/codegen/mathbits.go:145)	FUNCDATA	$3, gclocals·33cdeccccebe80329f1fdbee7f5874cb(SB)
	0x0000 00000 (/Users/fpf/Downloads/go1.11.1/test/codegen/mathbits.go:149)	PCDATA	$2, $0
	0x0000 00000 (/Users/fpf/Downloads/go1.11.1/test/codegen/mathbits.go:149)	PCDATA	$0, $0
	0x0000 00000 (/Users/fpf/Downloads/go1.11.1/test/codegen/mathbits.go:149)	MOVL	"".n+8(SP), AX
	0x0004 00004 (/Users/fpf/Downloads/go1.11.1/test/codegen/mathbits.go:149)	BSWAPL	AX
	0x0006 00006 (/Users/fpf/Downloads/go1.11.1/test/codegen/mathbits.go:149)	MOVL	AX, "".~r1+16(SP)
	0x000a 00010 (/Users/fpf/Downloads/go1.11.1/test/codegen/mathbits.go:149)	RET
	0x0000 8b 44 24 08 0f c8 89 44 24 10 c3                 .D$....D$..
"".ReverseBytes16 STEXT nosplit size=15 args=0x10 locals=0x0
	0x0000 00000 (/Users/fpf/Downloads/go1.11.1/test/codegen/mathbits.go:152)	TEXT	"".ReverseBytes16(SB), NOSPLIT, $0-16
	0x0000 00000 (/Users/fpf/Downloads/go1.11.1/test/codegen/mathbits.go:152)	FUNCDATA	$0, gclocals·33cdeccccebe80329f1fdbee7f5874cb(SB)
	0x0000 00000 (/Users/fpf/Downloads/go1.11.1/test/codegen/mathbits.go:152)	FUNCDATA	$1, gclocals·33cdeccccebe80329f1fdbee7f5874cb(SB)
	0x0000 00000 (/Users/fpf/Downloads/go1.11.1/test/codegen/mathbits.go:152)	FUNCDATA	$3, gclocals·33cdeccccebe80329f1fdbee7f5874cb(SB)
	0x0000 00000 (/Users/fpf/Downloads/go1.11.1/test/codegen/mathbits.go:154)	PCDATA	$2, $0
	0x0000 00000 (/Users/fpf/Downloads/go1.11.1/test/codegen/mathbits.go:154)	PCDATA	$0, $0
	0x0000 00000 (/Users/fpf/Downloads/go1.11.1/test/codegen/mathbits.go:154)	MOVWLZX	"".n+8(SP), AX
	0x0005 00005 (/Users/fpf/Downloads/go1.11.1/test/codegen/mathbits.go:154)	ROLW	$8, AX
	0x0009 00009 (/Users/fpf/Downloads/go1.11.1/test/codegen/mathbits.go:154)	MOVW	AX, "".~r1+16(SP)
	0x000e 00014 (/Users/fpf/Downloads/go1.11.1/test/codegen/mathbits.go:154)	RET
	0x0000 0f b7 44 24 08 66 c1 c0 08 66 89 44 24 10 c3     ..D$.f...f.D$..
"".RotateLeft64 STEXT nosplit size=15 args=0x10 locals=0x0
	0x0000 00000 (/Users/fpf/Downloads/go1.11.1/test/codegen/mathbits.go:161)	TEXT	"".RotateLeft64(SB), NOSPLIT, $0-16
	0x0000 00000 (/Users/fpf/Downloads/go1.11.1/test/codegen/mathbits.go:161)	FUNCDATA	$0, gclocals·33cdeccccebe80329f1fdbee7f5874cb(SB)
	0x0000 00000 (/Users/fpf/Downloads/go1.11.1/test/codegen/mathbits.go:161)	FUNCDATA	$1, gclocals·33cdeccccebe80329f1fdbee7f5874cb(SB)
	0x0000 00000 (/Users/fpf/Downloads/go1.11.1/test/codegen/mathbits.go:161)	FUNCDATA	$3, gclocals·33cdeccccebe80329f1fdbee7f5874cb(SB)
	0x0000 00000 (/Users/fpf/Downloads/go1.11.1/test/codegen/mathbits.go:165)	PCDATA	$2, $0
	0x0000 00000 (/Users/fpf/Downloads/go1.11.1/test/codegen/mathbits.go:165)	PCDATA	$0, $0
	0x0000 00000 (/Users/fpf/Downloads/go1.11.1/test/codegen/mathbits.go:165)	MOVQ	"".n+8(SP), AX
	0x0005 00005 (/Users/fpf/Downloads/go1.11.1/test/codegen/mathbits.go:165)	ROLQ	$37, AX
	0x0009 00009 (/Users/fpf/Downloads/go1.11.1/test/codegen/mathbits.go:165)	MOVQ	AX, "".~r1+16(SP)
	0x000e 00014 (/Users/fpf/Downloads/go1.11.1/test/codegen/mathbits.go:165)	RET
	0x0000 48 8b 44 24 08 48 c1 c0 25 48 89 44 24 10 c3     H.D$.H..%H.D$..
"".RotateLeft32 STEXT nosplit size=12 args=0x10 locals=0x0
	0x0000 00000 (/Users/fpf/Downloads/go1.11.1/test/codegen/mathbits.go:168)	TEXT	"".RotateLeft32(SB), NOSPLIT, $0-16
	0x0000 00000 (/Users/fpf/Downloads/go1.11.1/test/codegen/mathbits.go:168)	FUNCDATA	$0, gclocals·33cdeccccebe80329f1fdbee7f5874cb(SB)
	0x0000 00000 (/Users/fpf/Downloads/go1.11.1/test/codegen/mathbits.go:168)	FUNCDATA	$1, gclocals·33cdeccccebe80329f1fdbee7f5874cb(SB)
	0x0000 00000 (/Users/fpf/Downloads/go1.11.1/test/codegen/mathbits.go:168)	FUNCDATA	$3, gclocals·33cdeccccebe80329f1fdbee7f5874cb(SB)
	0x0000 00000 (/Users/fpf/Downloads/go1.11.1/test/codegen/mathbits.go:172)	PCDATA	$2, $0
	0x0000 00000 (/Users/fpf/Downloads/go1.11.1/test/codegen/mathbits.go:172)	PCDATA	$0, $0
	0x0000 00000 (/Users/fpf/Downloads/go1.11.1/test/codegen/mathbits.go:172)	MOVL	"".n+8(SP), AX
	0x0004 00004 (/Users/fpf/Downloads/go1.11.1/test/codegen/mathbits.go:172)	ROLL	$9, AX
	0x0007 00007 (/Users/fpf/Downloads/go1.11.1/test/codegen/mathbits.go:172)	MOVL	AX, "".~r1+16(SP)
	0x000b 00011 (/Users/fpf/Downloads/go1.11.1/test/codegen/mathbits.go:172)	RET
	0x0000 8b 44 24 08 c1 c0 09 89 44 24 10 c3              .D$.....D$..
"".RotateLeft16 STEXT nosplit size=15 args=0x10 locals=0x0
	0x0000 00000 (/Users/fpf/Downloads/go1.11.1/test/codegen/mathbits.go:175)	TEXT	"".RotateLeft16(SB), NOSPLIT, $0-16
	0x0000 00000 (/Users/fpf/Downloads/go1.11.1/test/codegen/mathbits.go:175)	FUNCDATA	$0, gclocals·33cdeccccebe80329f1fdbee7f5874cb(SB)
	0x0000 00000 (/Users/fpf/Downloads/go1.11.1/test/codegen/mathbits.go:175)	FUNCDATA	$1, gclocals·33cdeccccebe80329f1fdbee7f5874cb(SB)
	0x0000 00000 (/Users/fpf/Downloads/go1.11.1/test/codegen/mathbits.go:175)	FUNCDATA	$3, gclocals·33cdeccccebe80329f1fdbee7f5874cb(SB)
	0x0000 00000 (/Users/fpf/Downloads/go1.11.1/test/codegen/mathbits.go:177)	PCDATA	$2, $0
	0x0000 00000 (/Users/fpf/Downloads/go1.11.1/test/codegen/mathbits.go:177)	PCDATA	$0, $0
	0x0000 00000 (/Users/fpf/Downloads/go1.11.1/test/codegen/mathbits.go:177)	MOVWLZX	"".n+8(SP), AX
	0x0005 00005 (/Users/fpf/Downloads/go1.11.1/test/codegen/mathbits.go:177)	ROLW	$5, AX
	0x0009 00009 (/Users/fpf/Downloads/go1.11.1/test/codegen/mathbits.go:177)	MOVW	AX, "".~r1+16(SP)
	0x000e 00014 (/Users/fpf/Downloads/go1.11.1/test/codegen/mathbits.go:177)	RET
	0x0000 0f b7 44 24 08 66 c1 c0 05 66 89 44 24 10 c3     ..D$.f...f.D$..
"".RotateLeft8 STEXT nosplit size=13 args=0x10 locals=0x0
	0x0000 00000 (/Users/fpf/Downloads/go1.11.1/test/codegen/mathbits.go:180)	TEXT	"".RotateLeft8(SB), NOSPLIT, $0-16
	0x0000 00000 (/Users/fpf/Downloads/go1.11.1/test/codegen/mathbits.go:180)	FUNCDATA	$0, gclocals·33cdeccccebe80329f1fdbee7f5874cb(SB)
	0x0000 00000 (/Users/fpf/Downloads/go1.11.1/test/codegen/mathbits.go:180)	FUNCDATA	$1, gclocals·33cdeccccebe80329f1fdbee7f5874cb(SB)
	0x0000 00000 (/Users/fpf/Downloads/go1.11.1/test/codegen/mathbits.go:180)	FUNCDATA	$3, gclocals·33cdeccccebe80329f1fdbee7f5874cb(SB)
	0x0000 00000 (/Users/fpf/Downloads/go1.11.1/test/codegen/mathbits.go:182)	PCDATA	$2, $0
	0x0000 00000 (/Users/fpf/Downloads/go1.11.1/test/codegen/mathbits.go:182)	PCDATA	$0, $0
	0x0000 00000 (/Users/fpf/Downloads/go1.11.1/test/codegen/mathbits.go:182)	MOVBLZX	"".n+8(SP), AX
	0x0005 00005 (/Users/fpf/Downloads/go1.11.1/test/codegen/mathbits.go:182)	ROLB	$5, AL
	0x0008 00008 (/Users/fpf/Downloads/go1.11.1/test/codegen/mathbits.go:182)	MOVB	AL, "".~r1+16(SP)
	0x000c 00012 (/Users/fpf/Downloads/go1.11.1/test/codegen/mathbits.go:182)	RET
	0x0000 0f b6 44 24 08 c0 c0 05 88 44 24 10 c3           ..D$.....D$..
"".TrailingZeros STEXT nosplit size=24 args=0x10 locals=0x0
	0x0000 00000 (/Users/fpf/Downloads/go1.11.1/test/codegen/mathbits.go:189)	TEXT	"".TrailingZeros(SB), NOSPLIT, $0-16
	0x0000 00000 (/Users/fpf/Downloads/go1.11.1/test/codegen/mathbits.go:189)	FUNCDATA	$0, gclocals·33cdeccccebe80329f1fdbee7f5874cb(SB)
	0x0000 00000 (/Users/fpf/Downloads/go1.11.1/test/codegen/mathbits.go:189)	FUNCDATA	$1, gclocals·33cdeccccebe80329f1fdbee7f5874cb(SB)
	0x0000 00000 (/Users/fpf/Downloads/go1.11.1/test/codegen/mathbits.go:189)	FUNCDATA	$3, gclocals·33cdeccccebe80329f1fdbee7f5874cb(SB)
	0x0000 00000 (/Users/fpf/Downloads/go1.11.1/test/codegen/mathbits.go:192)	PCDATA	$2, $0
	0x0000 00000 (/Users/fpf/Downloads/go1.11.1/test/codegen/mathbits.go:192)	PCDATA	$0, $0
	0x0000 00000 (/Users/fpf/Downloads/go1.11.1/test/codegen/mathbits.go:192)	MOVQ	"".n+8(SP), AX
	0x0005 00005 (/Users/fpf/Downloads/go1.11.1/test/codegen/mathbits.go:192)	BSFQ	AX, AX
	0x0009 00009 (/Users/fpf/Downloads/go1.11.1/test/codegen/mathbits.go:192)	MOVL	$64, CX
	0x000e 00014 (/Users/fpf/Downloads/go1.11.1/test/codegen/mathbits.go:192)	CMOVQEQ	CX, AX
	0x0012 00018 (/Users/fpf/Downloads/go1.11.1/test/codegen/mathbits.go:192)	MOVQ	AX, "".~r1+16(SP)
	0x0017 00023 (/Users/fpf/Downloads/go1.11.1/test/codegen/mathbits.go:192)	RET
	0x0000 48 8b 44 24 08 48 0f bc c0 b9 40 00 00 00 48 0f  H.D$.H....@...H.
	0x0010 44 c1 48 89 44 24 10 c3                          D.H.D$..
"".TrailingZeros64 STEXT nosplit size=24 args=0x10 locals=0x0
	0x0000 00000 (/Users/fpf/Downloads/go1.11.1/test/codegen/mathbits.go:195)	TEXT	"".TrailingZeros64(SB), NOSPLIT, $0-16
	0x0000 00000 (/Users/fpf/Downloads/go1.11.1/test/codegen/mathbits.go:195)	FUNCDATA	$0, gclocals·33cdeccccebe80329f1fdbee7f5874cb(SB)
	0x0000 00000 (/Users/fpf/Downloads/go1.11.1/test/codegen/mathbits.go:195)	FUNCDATA	$1, gclocals·33cdeccccebe80329f1fdbee7f5874cb(SB)
	0x0000 00000 (/Users/fpf/Downloads/go1.11.1/test/codegen/mathbits.go:195)	FUNCDATA	$3, gclocals·33cdeccccebe80329f1fdbee7f5874cb(SB)
	0x0000 00000 (/Users/fpf/Downloads/go1.11.1/test/codegen/mathbits.go:198)	PCDATA	$2, $0
	0x0000 00000 (/Users/fpf/Downloads/go1.11.1/test/codegen/mathbits.go:198)	PCDATA	$0, $0
	0x0000 00000 (/Users/fpf/Downloads/go1.11.1/test/codegen/mathbits.go:198)	MOVQ	"".n+8(SP), AX
	0x0005 00005 (/Users/fpf/Downloads/go1.11.1/test/codegen/mathbits.go:198)	BSFQ	AX, AX
	0x0009 00009 (/Users/fpf/Downloads/go1.11.1/test/codegen/mathbits.go:198)	MOVL	$64, CX
	0x000e 00014 (/Users/fpf/Downloads/go1.11.1/test/codegen/mathbits.go:198)	CMOVQEQ	CX, AX
	0x0012 00018 (/Users/fpf/Downloads/go1.11.1/test/codegen/mathbits.go:198)	MOVQ	AX, "".~r1+16(SP)
	0x0017 00023 (/Users/fpf/Downloads/go1.11.1/test/codegen/mathbits.go:198)	RET
	0x0000 48 8b 44 24 08 48 0f bc c0 b9 40 00 00 00 48 0f  H.D$.H....@...H.
	0x0010 44 c1 48 89 44 24 10 c3                          D.H.D$..
"".TrailingZeros32 STEXT nosplit size=19 args=0x10 locals=0x0
	0x0000 00000 (/Users/fpf/Downloads/go1.11.1/test/codegen/mathbits.go:201)	TEXT	"".TrailingZeros32(SB), NOSPLIT, $0-16
	0x0000 00000 (/Users/fpf/Downloads/go1.11.1/test/codegen/mathbits.go:201)	FUNCDATA	$0, gclocals·33cdeccccebe80329f1fdbee7f5874cb(SB)
	0x0000 00000 (/Users/fpf/Downloads/go1.11.1/test/codegen/mathbits.go:201)	FUNCDATA	$1, gclocals·33cdeccccebe80329f1fdbee7f5874cb(SB)
	0x0000 00000 (/Users/fpf/Downloads/go1.11.1/test/codegen/mathbits.go:201)	FUNCDATA	$3, gclocals·33cdeccccebe80329f1fdbee7f5874cb(SB)
	0x0000 00000 (/Users/fpf/Downloads/go1.11.1/test/codegen/mathbits.go:204)	PCDATA	$2, $0
	0x0000 00000 (/Users/fpf/Downloads/go1.11.1/test/codegen/mathbits.go:204)	PCDATA	$0, $0
	0x0000 00000 (/Users/fpf/Downloads/go1.11.1/test/codegen/mathbits.go:204)	MOVL	"".n+8(SP), AX
	0x0004 00004 (/Users/fpf/Downloads/go1.11.1/test/codegen/mathbits.go:204)	BTSQ	$32, AX
	0x0009 00009 (/Users/fpf/Downloads/go1.11.1/test/codegen/mathbits.go:204)	BSFQ	AX, AX
	0x000d 00013 (/Users/fpf/Downloads/go1.11.1/test/codegen/mathbits.go:204)	MOVQ	AX, "".~r1+16(SP)
	0x0012 00018 (/Users/fpf/Downloads/go1.11.1/test/codegen/mathbits.go:204)	RET
	0x0000 8b 44 24 08 48 0f ba e8 20 48 0f bc c0 48 89 44  .D$.H... H...H.D
	0x0010 24 10 c3                                         $..
"".TrailingZeros16 STEXT nosplit size=18 args=0x10 locals=0x0
	0x0000 00000 (/Users/fpf/Downloads/go1.11.1/test/codegen/mathbits.go:207)	TEXT	"".TrailingZeros16(SB), NOSPLIT, $0-16
	0x0000 00000 (/Users/fpf/Downloads/go1.11.1/test/codegen/mathbits.go:207)	FUNCDATA	$0, gclocals·33cdeccccebe80329f1fdbee7f5874cb(SB)
	0x0000 00000 (/Users/fpf/Downloads/go1.11.1/test/codegen/mathbits.go:207)	FUNCDATA	$1, gclocals·33cdeccccebe80329f1fdbee7f5874cb(SB)
	0x0000 00000 (/Users/fpf/Downloads/go1.11.1/test/codegen/mathbits.go:207)	FUNCDATA	$3, gclocals·33cdeccccebe80329f1fdbee7f5874cb(SB)
	0x0000 00000 (/Users/fpf/Downloads/go1.11.1/test/codegen/mathbits.go:210)	PCDATA	$2, $0
	0x0000 00000 (/Users/fpf/Downloads/go1.11.1/test/codegen/mathbits.go:210)	PCDATA	$0, $0
	0x0000 00000 (/Users/fpf/Downloads/go1.11.1/test/codegen/mathbits.go:210)	MOVWLZX	"".n+8(SP), AX
	0x0005 00005 (/Users/fpf/Downloads/go1.11.1/test/codegen/mathbits.go:210)	BTSL	$16, AX
	0x0009 00009 (/Users/fpf/Downloads/go1.11.1/test/codegen/mathbits.go:210)	BSFL	AX, AX
	0x000c 00012 (/Users/fpf/Downloads/go1.11.1/test/codegen/mathbits.go:210)	MOVQ	AX, "".~r1+16(SP)
	0x0011 00017 (/Users/fpf/Downloads/go1.11.1/test/codegen/mathbits.go:210)	RET
	0x0000 0f b7 44 24 08 0f ba e8 10 0f bc c0 48 89 44 24  ..D$........H.D$
	0x0010 10 c3                                            ..
"".TrailingZeros8 STEXT nosplit size=18 args=0x10 locals=0x0
	0x0000 00000 (/Users/fpf/Downloads/go1.11.1/test/codegen/mathbits.go:213)	TEXT	"".TrailingZeros8(SB), NOSPLIT, $0-16
	0x0000 00000 (/Users/fpf/Downloads/go1.11.1/test/codegen/mathbits.go:213)	FUNCDATA	$0, gclocals·33cdeccccebe80329f1fdbee7f5874cb(SB)
	0x0000 00000 (/Users/fpf/Downloads/go1.11.1/test/codegen/mathbits.go:213)	FUNCDATA	$1, gclocals·33cdeccccebe80329f1fdbee7f5874cb(SB)
	0x0000 00000 (/Users/fpf/Downloads/go1.11.1/test/codegen/mathbits.go:213)	FUNCDATA	$3, gclocals·33cdeccccebe80329f1fdbee7f5874cb(SB)
	0x0000 00000 (/Users/fpf/Downloads/go1.11.1/test/codegen/mathbits.go:216)	PCDATA	$2, $0
	0x0000 00000 (/Users/fpf/Downloads/go1.11.1/test/codegen/mathbits.go:216)	PCDATA	$0, $0
	0x0000 00000 (/Users/fpf/Downloads/go1.11.1/test/codegen/mathbits.go:216)	MOVBLZX	"".n+8(SP), AX
	0x0005 00005 (/Users/fpf/Downloads/go1.11.1/test/codegen/mathbits.go:216)	BTSL	$8, AX
	0x0009 00009 (/Users/fpf/Downloads/go1.11.1/test/codegen/mathbits.go:216)	BSFL	AX, AX
	0x000c 00012 (/Users/fpf/Downloads/go1.11.1/test/codegen/mathbits.go:216)	MOVQ	AX, "".~r1+16(SP)
	0x0011 00017 (/Users/fpf/Downloads/go1.11.1/test/codegen/mathbits.go:216)	RET
	0x0000 0f b6 44 24 08 0f ba e8 08 0f bc c0 48 89 44 24  ..D$........H.D$
	0x0010 10 c3                                            ..
"".IterateBits STEXT nosplit size=34 args=0x10 locals=0x0
	0x0000 00000 (/Users/fpf/Downloads/go1.11.1/test/codegen/mathbits.go:221)	TEXT	"".IterateBits(SB), NOSPLIT, $0-16
	0x0000 00000 (/Users/fpf/Downloads/go1.11.1/test/codegen/mathbits.go:221)	FUNCDATA	$0, gclocals·33cdeccccebe80329f1fdbee7f5874cb(SB)
	0x0000 00000 (/Users/fpf/Downloads/go1.11.1/test/codegen/mathbits.go:221)	FUNCDATA	$1, gclocals·33cdeccccebe80329f1fdbee7f5874cb(SB)
	0x0000 00000 (/Users/fpf/Downloads/go1.11.1/test/codegen/mathbits.go:221)	FUNCDATA	$3, gclocals·33cdeccccebe80329f1fdbee7f5874cb(SB)
	0x0000 00000 (/Users/fpf/Downloads/go1.11.1/test/codegen/mathbits.go:223)	PCDATA	$2, $0
	0x0000 00000 (/Users/fpf/Downloads/go1.11.1/test/codegen/mathbits.go:223)	PCDATA	$0, $0
	0x0000 00000 (/Users/fpf/Downloads/go1.11.1/test/codegen/mathbits.go:223)	MOVQ	"".n+8(SP), AX
	0x0005 00005 (/Users/fpf/Downloads/go1.11.1/test/codegen/mathbits.go:223)	XORL	CX, CX
	0x0007 00007 (/Users/fpf/Downloads/go1.11.1/test/codegen/mathbits.go:223)	JMP	23
	0x0009 00009 (/Users/fpf/Downloads/go1.11.1/test/codegen/mathbits.go:225)	BSFQ	AX, DX
	0x000d 00013 (/Users/fpf/Downloads/go1.11.1/test/codegen/mathbits.go:225)	ADDQ	DX, CX
	0x0010 00016 (/Users/fpf/Downloads/go1.11.1/test/codegen/mathbits.go:226)	LEAQ	-1(AX), DX
	0x0014 00020 (/Users/fpf/Downloads/go1.11.1/test/codegen/mathbits.go:226)	ANDQ	DX, AX
	0x0017 00023 (/Users/fpf/Downloads/go1.11.1/test/codegen/mathbits.go:223)	TESTQ	AX, AX
	0x001a 00026 (/Users/fpf/Downloads/go1.11.1/test/codegen/mathbits.go:223)	JNE	9
	0x001c 00028 (/Users/fpf/Downloads/go1.11.1/test/codegen/mathbits.go:228)	MOVQ	CX, "".~r1+16(SP)
	0x0021 00033 (/Users/fpf/Downloads/go1.11.1/test/codegen/mathbits.go:228)	RET
	0x0000 48 8b 44 24 08 31 c9 eb 0e 48 0f bc d0 48 01 d1  H.D$.1...H...H..
	0x0010 48 8d 50 ff 48 21 d0 48 85 c0 75 ed 48 89 4c 24  H.P.H!.H..u.H.L$
	0x0020 10 c3                                            ..
"".IterateBits64 STEXT nosplit size=34 args=0x10 locals=0x0
	0x0000 00000 (/Users/fpf/Downloads/go1.11.1/test/codegen/mathbits.go:231)	TEXT	"".IterateBits64(SB), NOSPLIT, $0-16
	0x0000 00000 (/Users/fpf/Downloads/go1.11.1/test/codegen/mathbits.go:231)	FUNCDATA	$0, gclocals·33cdeccccebe80329f1fdbee7f5874cb(SB)
	0x0000 00000 (/Users/fpf/Downloads/go1.11.1/test/codegen/mathbits.go:231)	FUNCDATA	$1, gclocals·33cdeccccebe80329f1fdbee7f5874cb(SB)
	0x0000 00000 (/Users/fpf/Downloads/go1.11.1/test/codegen/mathbits.go:231)	FUNCDATA	$3, gclocals·33cdeccccebe80329f1fdbee7f5874cb(SB)
	0x0000 00000 (/Users/fpf/Downloads/go1.11.1/test/codegen/mathbits.go:233)	PCDATA	$2, $0
	0x0000 00000 (/Users/fpf/Downloads/go1.11.1/test/codegen/mathbits.go:233)	PCDATA	$0, $0
	0x0000 00000 (/Users/fpf/Downloads/go1.11.1/test/codegen/mathbits.go:233)	MOVQ	"".n+8(SP), AX
	0x0005 00005 (/Users/fpf/Downloads/go1.11.1/test/codegen/mathbits.go:233)	XORL	CX, CX
	0x0007 00007 (/Users/fpf/Downloads/go1.11.1/test/codegen/mathbits.go:233)	JMP	23
	0x0009 00009 (/Users/fpf/Downloads/go1.11.1/test/codegen/mathbits.go:235)	BSFQ	AX, DX
	0x000d 00013 (/Users/fpf/Downloads/go1.11.1/test/codegen/mathbits.go:235)	ADDQ	DX, CX
	0x0010 00016 (/Users/fpf/Downloads/go1.11.1/test/codegen/mathbits.go:236)	LEAQ	-1(AX), DX
	0x0014 00020 (/Users/fpf/Downloads/go1.11.1/test/codegen/mathbits.go:236)	ANDQ	DX, AX
	0x0017 00023 (/Users/fpf/Downloads/go1.11.1/test/codegen/mathbits.go:233)	TESTQ	AX, AX
	0x001a 00026 (/Users/fpf/Downloads/go1.11.1/test/codegen/mathbits.go:233)	JNE	9
	0x001c 00028 (/Users/fpf/Downloads/go1.11.1/test/codegen/mathbits.go:238)	MOVQ	CX, "".~r1+16(SP)
	0x0021 00033 (/Users/fpf/Downloads/go1.11.1/test/codegen/mathbits.go:238)	RET
	0x0000 48 8b 44 24 08 31 c9 eb 0e 48 0f bc d0 48 01 d1  H.D$.1...H...H..
	0x0010 48 8d 50 ff 48 21 d0 48 85 c0 75 ed 48 89 4c 24  H.P.H!.H..u.H.L$
	0x0020 10 c3                                            ..
"".IterateBits32 STEXT nosplit size=29 args=0x10 locals=0x0
	0x0000 00000 (/Users/fpf/Downloads/go1.11.1/test/codegen/mathbits.go:241)	TEXT	"".IterateBits32(SB), NOSPLIT, $0-16
	0x0000 00000 (/Users/fpf/Downloads/go1.11.1/test/codegen/mathbits.go:241)	FUNCDATA	$0, gclocals·33cdeccccebe80329f1fdbee7f5874cb(SB)
	0x0000 00000 (/Users/fpf/Downloads/go1.11.1/test/codegen/mathbits.go:241)	FUNCDATA	$1, gclocals·33cdeccccebe80329f1fdbee7f5874cb(SB)
	0x0000 00000 (/Users/fpf/Downloads/go1.11.1/test/codegen/mathbits.go:241)	FUNCDATA	$3, gclocals·33cdeccccebe80329f1fdbee7f5874cb(SB)
	0x0000 00000 (/Users/fpf/Downloads/go1.11.1/test/codegen/mathbits.go:243)	PCDATA	$2, $0
	0x0000 00000 (/Users/fpf/Downloads/go1.11.1/test/codegen/mathbits.go:243)	PCDATA	$0, $0
	0x0000 00000 (/Users/fpf/Downloads/go1.11.1/test/codegen/mathbits.go:243)	MOVL	"".n+8(SP), AX
	0x0004 00004 (/Users/fpf/Downloads/go1.11.1/test/codegen/mathbits.go:243)	XORL	CX, CX
	0x0006 00006 (/Users/fpf/Downloads/go1.11.1/test/codegen/mathbits.go:243)	JMP	19
	0x0008 00008 (/Users/fpf/Downloads/go1.11.1/test/codegen/mathbits.go:245)	BSFL	AX, DX
	0x000b 00011 (/Users/fpf/Downloads/go1.11.1/test/codegen/mathbits.go:245)	ADDQ	DX, CX
	0x000e 00014 (/Users/fpf/Downloads/go1.11.1/test/codegen/mathbits.go:246)	LEAL	-1(AX), DX
	0x0011 00017 (/Users/fpf/Downloads/go1.11.1/test/codegen/mathbits.go:246)	ANDL	DX, AX
	0x0013 00019 (/Users/fpf/Downloads/go1.11.1/test/codegen/mathbits.go:243)	TESTL	AX, AX
	0x0015 00021 (/Users/fpf/Downloads/go1.11.1/test/codegen/mathbits.go:243)	JNE	8
	0x0017 00023 (/Users/fpf/Downloads/go1.11.1/test/codegen/mathbits.go:248)	MOVQ	CX, "".~r1+16(SP)
	0x001c 00028 (/Users/fpf/Downloads/go1.11.1/test/codegen/mathbits.go:248)	RET
	0x0000 8b 44 24 08 31 c9 eb 0b 0f bc d0 48 01 d1 8d 50  .D$.1......H...P
	0x0010 ff 21 d0 85 c0 75 f1 48 89 4c 24 10 c3           .!...u.H.L$..
"".IterateBits16 STEXT nosplit size=31 args=0x10 locals=0x0
	0x0000 00000 (/Users/fpf/Downloads/go1.11.1/test/codegen/mathbits.go:251)	TEXT	"".IterateBits16(SB), NOSPLIT, $0-16
	0x0000 00000 (/Users/fpf/Downloads/go1.11.1/test/codegen/mathbits.go:251)	FUNCDATA	$0, gclocals·33cdeccccebe80329f1fdbee7f5874cb(SB)
	0x0000 00000 (/Users/fpf/Downloads/go1.11.1/test/codegen/mathbits.go:251)	FUNCDATA	$1, gclocals·33cdeccccebe80329f1fdbee7f5874cb(SB)
	0x0000 00000 (/Users/fpf/Downloads/go1.11.1/test/codegen/mathbits.go:251)	FUNCDATA	$3, gclocals·33cdeccccebe80329f1fdbee7f5874cb(SB)
	0x0000 00000 (/Users/fpf/Downloads/go1.11.1/test/codegen/mathbits.go:253)	PCDATA	$2, $0
	0x0000 00000 (/Users/fpf/Downloads/go1.11.1/test/codegen/mathbits.go:253)	PCDATA	$0, $0
	0x0000 00000 (/Users/fpf/Downloads/go1.11.1/test/codegen/mathbits.go:253)	MOVWLZX	"".n+8(SP), AX
	0x0005 00005 (/Users/fpf/Downloads/go1.11.1/test/codegen/mathbits.go:253)	XORL	CX, CX
	0x0007 00007 (/Users/fpf/Downloads/go1.11.1/test/codegen/mathbits.go:253)	JMP	20
	0x0009 00009 (/Users/fpf/Downloads/go1.11.1/test/codegen/mathbits.go:255)	BSFL	AX, DX
	0x000c 00012 (/Users/fpf/Downloads/go1.11.1/test/codegen/mathbits.go:255)	ADDQ	DX, CX
	0x000f 00015 (/Users/fpf/Downloads/go1.11.1/test/codegen/mathbits.go:256)	LEAL	-1(AX), DX
	0x0012 00018 (/Users/fpf/Downloads/go1.11.1/test/codegen/mathbits.go:256)	ANDL	DX, AX
	0x0014 00020 (/Users/fpf/Downloads/go1.11.1/test/codegen/mathbits.go:253)	TESTW	AX, AX
	0x0017 00023 (/Users/fpf/Downloads/go1.11.1/test/codegen/mathbits.go:253)	JNE	9
	0x0019 00025 (/Users/fpf/Downloads/go1.11.1/test/codegen/mathbits.go:258)	MOVQ	CX, "".~r1+16(SP)
	0x001e 00030 (/Users/fpf/Downloads/go1.11.1/test/codegen/mathbits.go:258)	RET
	0x0000 0f b7 44 24 08 31 c9 eb 0b 0f bc d0 48 01 d1 8d  ..D$.1......H...
	0x0010 50 ff 21 d0 66 85 c0 75 f0 48 89 4c 24 10 c3     P.!.f..u.H.L$..
"".IterateBits8 STEXT nosplit size=30 args=0x10 locals=0x0
	0x0000 00000 (/Users/fpf/Downloads/go1.11.1/test/codegen/mathbits.go:261)	TEXT	"".IterateBits8(SB), NOSPLIT, $0-16
	0x0000 00000 (/Users/fpf/Downloads/go1.11.1/test/codegen/mathbits.go:261)	FUNCDATA	$0, gclocals·33cdeccccebe80329f1fdbee7f5874cb(SB)
	0x0000 00000 (/Users/fpf/Downloads/go1.11.1/test/codegen/mathbits.go:261)	FUNCDATA	$1, gclocals·33cdeccccebe80329f1fdbee7f5874cb(SB)
	0x0000 00000 (/Users/fpf/Downloads/go1.11.1/test/codegen/mathbits.go:261)	FUNCDATA	$3, gclocals·33cdeccccebe80329f1fdbee7f5874cb(SB)
	0x0000 00000 (/Users/fpf/Downloads/go1.11.1/test/codegen/mathbits.go:263)	PCDATA	$2, $0
	0x0000 00000 (/Users/fpf/Downloads/go1.11.1/test/codegen/mathbits.go:263)	PCDATA	$0, $0
	0x0000 00000 (/Users/fpf/Downloads/go1.11.1/test/codegen/mathbits.go:263)	MOVBLZX	"".n+8(SP), AX
	0x0005 00005 (/Users/fpf/Downloads/go1.11.1/test/codegen/mathbits.go:263)	XORL	CX, CX
	0x0007 00007 (/Users/fpf/Downloads/go1.11.1/test/codegen/mathbits.go:263)	JMP	20
	0x0009 00009 (/Users/fpf/Downloads/go1.11.1/test/codegen/mathbits.go:265)	BSFL	AX, DX
	0x000c 00012 (/Users/fpf/Downloads/go1.11.1/test/codegen/mathbits.go:265)	ADDQ	DX, CX
	0x000f 00015 (/Users/fpf/Downloads/go1.11.1/test/codegen/mathbits.go:266)	LEAL	-1(AX), DX
	0x0012 00018 (/Users/fpf/Downloads/go1.11.1/test/codegen/mathbits.go:266)	ANDL	DX, AX
	0x0014 00020 (/Users/fpf/Downloads/go1.11.1/test/codegen/mathbits.go:263)	TESTB	AL, AL
	0x0016 00022 (/Users/fpf/Downloads/go1.11.1/test/codegen/mathbits.go:263)	JNE	9
	0x0018 00024 (/Users/fpf/Downloads/go1.11.1/test/codegen/mathbits.go:268)	MOVQ	CX, "".~r1+16(SP)
	0x001d 00029 (/Users/fpf/Downloads/go1.11.1/test/codegen/mathbits.go:268)	RET
	0x0000 0f b6 44 24 08 31 c9 eb 0b 0f bc d0 48 01 d1 8d  ..D$.1......H...
	0x0010 50 ff 21 d0 84 c0 75 f1 48 89 4c 24 10 c3        P.!...u.H.L$..
go.info.math/bits.LeadingZeros$abstract SDWARFINFO dupok size=35
	0x0000 03 6d 61 74 68 2f 62 69 74 73 2e 4c 65 61 64 69  .math/bits.Leadi
	0x0010 6e 67 5a 65 72 6f 73 00 01 01 10 78 00 00 00 00  ngZeros....x....
	0x0020 00 00 00                                         ...
	rel 30+4 t=28 go.info.uint+0
go.info.math/bits.LeadingZeros64$abstract SDWARFINFO dupok size=37
	0x0000 03 6d 61 74 68 2f 62 69 74 73 2e 4c 65 61 64 69  .math/bits.Leadi
	0x0010 6e 67 5a 65 72 6f 73 36 34 00 01 01 10 78 00 00  ngZeros64....x..
	0x0020 00 00 00 00 00                                   .....
	rel 32+4 t=28 go.info.uint64+0
go.info.math/bits.LeadingZeros32$abstract SDWARFINFO dupok size=37
	0x0000 03 6d 61 74 68 2f 62 69 74 73 2e 4c 65 61 64 69  .math/bits.Leadi
	0x0010 6e 67 5a 65 72 6f 73 33 32 00 01 01 10 78 00 00  ngZeros32....x..
	0x0020 00 00 00 00 00                                   .....
	rel 32+4 t=28 go.info.uint32+0
go.info.math/bits.LeadingZeros16$abstract SDWARFINFO dupok size=37
	0x0000 03 6d 61 74 68 2f 62 69 74 73 2e 4c 65 61 64 69  .math/bits.Leadi
	0x0010 6e 67 5a 65 72 6f 73 31 36 00 01 01 10 78 00 00  ngZeros16....x..
	0x0020 00 00 00 00 00                                   .....
	rel 32+4 t=28 go.info.uint16+0
go.info.math/bits.LeadingZeros8$abstract SDWARFINFO dupok size=36
	0x0000 03 6d 61 74 68 2f 62 69 74 73 2e 4c 65 61 64 69  .math/bits.Leadi
	0x0010 6e 67 5a 65 72 6f 73 38 00 01 01 10 78 00 00 00  ngZeros8....x...
	0x0020 00 00 00 00                                      ....
	rel 31+4 t=28 go.info.uint8+0
go.info.math/bits.ReverseBytes$abstract SDWARFINFO dupok size=35
	0x0000 03 6d 61 74 68 2f 62 69 74 73 2e 52 65 76 65 72  .math/bits.Rever
	0x0010 73 65 42 79 74 65 73 00 01 01 10 78 00 00 00 00  seBytes....x....
	0x0020 00 00 00                                         ...
	rel 30+4 t=28 go.info.uint+0
go.info.math/bits.ReverseBytes16$abstract SDWARFINFO dupok size=37
	0x0000 03 6d 61 74 68 2f 62 69 74 73 2e 52 65 76 65 72  .math/bits.Rever
	0x0010 73 65 42 79 74 65 73 31 36 00 01 01 10 78 00 00  seBytes16....x..
	0x0020 00 00 00 00 00                                   .....
	rel 32+4 t=28 go.info.uint16+0
go.info.math/bits.RotateLeft64$abstract SDWARFINFO dupok size=52
	0x0000 03 6d 61 74 68 2f 62 69 74 73 2e 52 6f 74 61 74  .math/bits.Rotat
	0x0010 65 4c 65 66 74 36 34 00 01 01 10 6b 00 00 00 00  eLeft64....k....
	0x0020 00 00 0b 73 00 cb 01 00 00 00 00 10 78 00 00 00  ...s........x...
	0x0030 00 00 00 00                                      ....
	rel 30+4 t=28 go.info.int+0
	rel 39+4 t=28 go.info.uint+0
	rel 47+4 t=28 go.info.uint64+0
go.info.math/bits.RotateLeft32$abstract SDWARFINFO dupok size=52
	0x0000 03 6d 61 74 68 2f 62 69 74 73 2e 52 6f 74 61 74  .math/bits.Rotat
	0x0010 65 4c 65 66 74 33 32 00 01 01 10 6b 00 00 00 00  eLeft32....k....
	0x0020 00 00 0b 73 00 c3 01 00 00 00 00 10 78 00 00 00  ...s........x...
	0x0030 00 00 00 00                                      ....
	rel 30+4 t=28 go.info.int+0
	rel 39+4 t=28 go.info.uint+0
	rel 47+4 t=28 go.info.uint32+0
go.info.math/bits.RotateLeft16$abstract SDWARFINFO dupok size=52
	0x0000 03 6d 61 74 68 2f 62 69 74 73 2e 52 6f 74 61 74  .math/bits.Rotat
	0x0010 65 4c 65 66 74 31 36 00 01 01 10 6b 00 00 00 00  eLeft16....k....
	0x0020 00 00 0b 73 00 bb 01 00 00 00 00 10 78 00 00 00  ...s........x...
	0x0030 00 00 00 00                                      ....
	rel 30+4 t=28 go.info.int+0
	rel 39+4 t=28 go.info.uint+0
	rel 47+4 t=28 go.info.uint16+0
go.info.math/bits.RotateLeft8$abstract SDWARFINFO dupok size=51
	0x0000 03 6d 61 74 68 2f 62 69 74 73 2e 52 6f 74 61 74  .math/bits.Rotat
	0x0010 65 4c 65 66 74 38 00 01 01 10 6b 00 00 00 00 00  eLeft8....k.....
	0x0020 00 0b 73 00 b3 01 00 00 00 00 10 78 00 00 00 00  ..s........x....
	0x0030 00 00 00                                         ...
	rel 29+4 t=28 go.info.int+0
	rel 38+4 t=28 go.info.uint+0
	rel 46+4 t=28 go.info.uint8+0
go.info.math/bits.TrailingZeros$abstract SDWARFINFO dupok size=36
	0x0000 03 6d 61 74 68 2f 62 69 74 73 2e 54 72 61 69 6c  .math/bits.Trail
	0x0010 69 6e 67 5a 65 72 6f 73 00 01 01 10 78 00 00 00  ingZeros....x...
	0x0020 00 00 00 00                                      ....
	rel 31+4 t=28 go.info.uint+0
go.loc."".LeadingZeros SDWARFLOC size=51
	0x0000 ff ff ff ff ff ff ff ff 00 00 00 00 00 00 00 00  ................
	0x0010 05 00 00 00 00 00 00 00 21 00 00 00 00 00 00 00  ........!.......
	0x0020 01 00 9c 00 00 00 00 00 00 00 00 00 00 00 00 00  ................
	0x0030 00 00 00                                         ...
	rel 8+8 t=1 "".LeadingZeros+0
go.info."".LeadingZeros SDWARFINFO size=99
	0x0000 02 22 22 2e 4c 65 61 64 69 6e 67 5a 65 72 6f 73  ."".LeadingZeros
	0x0010 00 00 00 00 00 00 00 00 00 00 00 00 00 00 00 00  ................
	0x0020 00 01 9c 00 00 00 00 01 0e 6e 00 00 0f 00 00 00  .........n......
	0x0030 00 00 0e 7e 72 31 00 01 0f 00 00 00 00 00 05 00  ...~r1..........
	0x0040 00 00 00 00 00 00 00 00 00 00 00 00 00 00 00 00  ................
	0x0050 00 00 00 00 00 00 00 14 12 00 00 00 00 00 00 00  ................
	0x0060 00 00 00                                         ...
	rel 17+8 t=1 "".LeadingZeros+0
	rel 25+8 t=1 "".LeadingZeros+33
	rel 35+4 t=29 gofile..$GOROOT/test/codegen/mathbits.go+0
	rel 45+4 t=28 go.info.uint+0
	rel 57+4 t=28 go.info.int+0
	rel 63+4 t=28 go.info.math/bits.LeadingZeros$abstract+0
	rel 67+8 t=1 "".LeadingZeros+0
	rel 75+8 t=1 "".LeadingZeros+27
	rel 83+4 t=29 gofile..$GOROOT/test/codegen/mathbits.go+0
	rel 89+4 t=28 go.info.math/bits.LeadingZeros$abstract+26
	rel 93+4 t=28 go.loc."".LeadingZeros+0
go.range."".LeadingZeros SDWARFRANGE size=0
go.isstmt."".LeadingZeros SDWARFMISC size=0
	0x0000 04 05 01 16 02 05 01 01 00                       .........
go.loc."".LeadingZeros64 SDWARFLOC size=51
	0x0000 ff ff ff ff ff ff ff ff 00 00 00 00 00 00 00 00  ................
	0x0010 05 00 00 00 00 00 00 00 21 00 00 00 00 00 00 00  ........!.......
	0x0020 01 00 9c 00 00 00 00 00 00 00 00 00 00 00 00 00  ................
	0x0030 00 00 00                                         ...
	rel 8+8 t=1 "".LeadingZeros64+0
go.info."".LeadingZeros64 SDWARFINFO size=101
	0x0000 02 22 22 2e 4c 65 61 64 69 6e 67 5a 65 72 6f 73  ."".LeadingZeros
	0x0010 36 34 00 00 00 00 00 00 00 00 00 00 00 00 00 00  64..............
	0x0020 00 00 00 01 9c 00 00 00 00 01 0e 6e 00 00 17 00  ...........n....
	0x0030 00 00 00 00 0e 7e 72 31 00 01 17 00 00 00 00 00  .....~r1........
	0x0040 05 00 00 00 00 00 00 00 00 00 00 00 00 00 00 00  ................
	0x0050 00 00 00 00 00 00 00 00 00 1c 12 00 00 00 00 00  ................
	0x0060 00 00 00 00 00                                   .....
	rel 19+8 t=1 "".LeadingZeros64+0
	rel 27+8 t=1 "".LeadingZeros64+33
	rel 37+4 t=29 gofile..$GOROOT/test/codegen/mathbits.go+0
	rel 47+4 t=28 go.info.uint64+0
	rel 59+4 t=28 go.info.int+0
	rel 65+4 t=28 go.info.math/bits.LeadingZeros64$abstract+0
	rel 69+8 t=1 "".LeadingZeros64+0
	rel 77+8 t=1 "".LeadingZeros64+27
	rel 85+4 t=29 gofile..$GOROOT/test/codegen/mathbits.go+0
	rel 91+4 t=28 go.info.math/bits.LeadingZeros64$abstract+28
	rel 95+4 t=28 go.loc."".LeadingZeros64+0
go.range."".LeadingZeros64 SDWARFRANGE size=0
go.isstmt."".LeadingZeros64 SDWARFMISC size=0
	0x0000 04 05 01 16 02 05 01 01 00                       .........
go.loc."".LeadingZeros32 SDWARFLOC size=51
	0x0000 ff ff ff ff ff ff ff ff 00 00 00 00 00 00 00 00  ................
	0x0010 04 00 00 00 00 00 00 00 1a 00 00 00 00 00 00 00  ................
	0x0020 01 00 9c 00 00 00 00 00 00 00 00 00 00 00 00 00  ................
	0x0030 00 00 00                                         ...
	rel 8+8 t=1 "".LeadingZeros32+0
go.info."".LeadingZeros32 SDWARFINFO size=101
	0x0000 02 22 22 2e 4c 65 61 64 69 6e 67 5a 65 72 6f 73  ."".LeadingZeros
	0x0010 33 32 00 00 00 00 00 00 00 00 00 00 00 00 00 00  32..............
	0x0020 00 00 00 01 9c 00 00 00 00 01 0e 6e 00 00 1f 00  ...........n....
	0x0030 00 00 00 00 0e 7e 72 31 00 01 1f 00 00 00 00 00  .....~r1........
	0x0040 05 00 00 00 00 00 00 00 00 00 00 00 00 00 00 00  ................
	0x0050 00 00 00 00 00 00 00 00 00 24 12 00 00 00 00 00  .........$......
	0x0060 00 00 00 00 00                                   .....
	rel 19+8 t=1 "".LeadingZeros32+0
	rel 27+8 t=1 "".LeadingZeros32+26
	rel 37+4 t=29 gofile..$GOROOT/test/codegen/mathbits.go+0
	rel 47+4 t=28 go.info.uint32+0
	rel 59+4 t=28 go.info.int+0
	rel 65+4 t=28 go.info.math/bits.LeadingZeros32$abstract+0
	rel 69+8 t=1 "".LeadingZeros32+0
	rel 77+8 t=1 "".LeadingZeros32+20
	rel 85+4 t=29 gofile..$GOROOT/test/codegen/mathbits.go+0
	rel 91+4 t=28 go.info.math/bits.LeadingZeros32$abstract+28
	rel 95+4 t=28 go.loc."".LeadingZeros32+0
go.range."".LeadingZeros32 SDWARFRANGE size=0
go.isstmt."".LeadingZeros32 SDWARFMISC size=0
	0x0000 04 04 01 10 02 05 01 01 00                       .........
go.loc."".LeadingZeros16 SDWARFLOC size=51
	0x0000 ff ff ff ff ff ff ff ff 00 00 00 00 00 00 00 00  ................
	0x0010 05 00 00 00 00 00 00 00 1c 00 00 00 00 00 00 00  ................
	0x0020 01 00 9c 00 00 00 00 00 00 00 00 00 00 00 00 00  ................
	0x0030 00 00 00                                         ...
	rel 8+8 t=1 "".LeadingZeros16+0
go.info."".LeadingZeros16 SDWARFINFO size=101
	0x0000 02 22 22 2e 4c 65 61 64 69 6e 67 5a 65 72 6f 73  ."".LeadingZeros
	0x0010 31 36 00 00 00 00 00 00 00 00 00 00 00 00 00 00  16..............
	0x0020 00 00 00 01 9c 00 00 00 00 01 0e 6e 00 00 27 00  ...........n..'.
	0x0030 00 00 00 00 0e 7e 72 31 00 01 27 00 00 00 00 00  .....~r1..'.....
	0x0040 05 00 00 00 00 00 00 00 00 00 00 00 00 00 00 00  ................
	0x0050 00 00 00 00 00 00 00 00 00 2c 12 00 00 00 00 00  .........,......
	0x0060 00 00 00 00 00                                   .....
	rel 19+8 t=1 "".LeadingZeros16+0
	rel 27+8 t=1 "".LeadingZeros16+28
	rel 37+4 t=29 gofile..$GOROOT/test/codegen/mathbits.go+0
	rel 47+4 t=28 go.info.uint16+0
	rel 59+4 t=28 go.info.int+0
	rel 65+4 t=28 go.info.math/bits.LeadingZeros16$abstract+0
	rel 69+8 t=1 "".LeadingZeros16+0
	rel 77+8 t=1 "".LeadingZeros16+22
	rel 85+4 t=29 gofile..$GOROOT/test/codegen/mathbits.go+0
	rel 91+4 t=28 go.info.math/bits.LeadingZeros16$abstract+28
	rel 95+4 t=28 go.loc."".LeadingZeros16+0
go.range."".LeadingZeros16 SDWARFRANGE size=0
go.isstmt."".LeadingZeros16 SDWARFMISC size=0
	0x0000 04 05 01 11 02 05 01 01 00                       .........
go.loc."".LeadingZeros8 SDWARFLOC size=51
	0x0000 ff ff ff ff ff ff ff ff 00 00 00 00 00 00 00 00  ................
	0x0010 05 00 00 00 00 00 00 00 1c 00 00 00 00 00 00 00  ................
	0x0020 01 00 9c 00 00 00 00 00 00 00 00 00 00 00 00 00  ................
	0x0030 00 00 00                                         ...
	rel 8+8 t=1 "".LeadingZeros8+0
go.info."".LeadingZeros8 SDWARFINFO size=100
	0x0000 02 22 22 2e 4c 65 61 64 69 6e 67 5a 65 72 6f 73  ."".LeadingZeros
	0x0010 38 00 00 00 00 00 00 00 00 00 00 00 00 00 00 00  8...............
	0x0020 00 00 01 9c 00 00 00 00 01 0e 6e 00 00 2f 00 00  ..........n../..
	0x0030 00 00 00 0e 7e 72 31 00 01 2f 00 00 00 00 00 05  ....~r1../......
	0x0040 00 00 00 00 00 00 00 00 00 00 00 00 00 00 00 00  ................
	0x0050 00 00 00 00 00 00 00 00 34 12 00 00 00 00 00 00  ........4.......
	0x0060 00 00 00 00                                      ....
	rel 18+8 t=1 "".LeadingZeros8+0
	rel 26+8 t=1 "".LeadingZeros8+28
	rel 36+4 t=29 gofile..$GOROOT/test/codegen/mathbits.go+0
	rel 46+4 t=28 go.info.uint8+0
	rel 58+4 t=28 go.info.int+0
	rel 64+4 t=28 go.info.math/bits.LeadingZeros8$abstract+0
	rel 68+8 t=1 "".LeadingZeros8+0
	rel 76+8 t=1 "".LeadingZeros8+22
	rel 84+4 t=29 gofile..$GOROOT/test/codegen/mathbits.go+0
	rel 90+4 t=28 go.info.math/bits.LeadingZeros8$abstract+27
	rel 94+4 t=28 go.loc."".LeadingZeros8+0
go.range."".LeadingZeros8 SDWARFRANGE size=0
go.isstmt."".LeadingZeros8 SDWARFMISC size=0
	0x0000 04 05 01 11 02 05 01 01 00                       .........
go.loc."".Len SDWARFLOC size=0
go.info."".Len SDWARFINFO size=54
	0x0000 02 22 22 2e 4c 65 6e 00 00 00 00 00 00 00 00 00  ."".Len.........
	0x0010 00 00 00 00 00 00 00 00 01 9c 00 00 00 00 01 0e  ................
	0x0020 6e 00 00 3b 00 00 00 00 00 0e 7e 72 31 00 01 3b  n..;......~r1..;
	0x0030 00 00 00 00 00 00                                ......
	rel 8+8 t=1 "".Len+0
	rel 16+8 t=1 "".Len+29
	rel 26+4 t=29 gofile..$GOROOT/test/codegen/mathbits.go+0
	rel 36+4 t=28 go.info.uint+0
	rel 48+4 t=28 go.info.int+0
go.range."".Len SDWARFRANGE size=0
go.isstmt."".Len SDWARFMISC size=0
	0x0000 04 05 01 18 00                                   .....
go.loc."".Len64 SDWARFLOC size=0
go.info."".Len64 SDWARFINFO size=56
	0x0000 02 22 22 2e 4c 65 6e 36 34 00 00 00 00 00 00 00  ."".Len64.......
	0x0010 00 00 00 00 00 00 00 00 00 00 01 9c 00 00 00 00  ................
	0x0020 01 0e 6e 00 00 43 00 00 00 00 00 0e 7e 72 31 00  ..n..C......~r1.
	0x0030 01 43 00 00 00 00 00 00                          .C......
	rel 10+8 t=1 "".Len64+0
	rel 18+8 t=1 "".Len64+29
	rel 28+4 t=29 gofile..$GOROOT/test/codegen/mathbits.go+0
	rel 38+4 t=28 go.info.uint64+0
	rel 50+4 t=28 go.info.int+0
go.range."".Len64 SDWARFRANGE size=0
go.isstmt."".Len64 SDWARFMISC size=0
	0x0000 04 05 01 18 00                                   .....
go.loc."".Len32 SDWARFLOC size=0
go.info."".Len32 SDWARFINFO size=56
	0x0000 02 22 22 2e 4c 65 6e 33 32 00 00 00 00 00 00 00  ."".Len32.......
	0x0010 00 00 00 00 00 00 00 00 00 00 01 9c 00 00 00 00  ................
	0x0020 01 0e 6e 00 00 4b 00 00 00 00 00 0e 7e 72 31 00  ..n..K......~r1.
	0x0030 01 4b 00 00 00 00 00 00                          .K......
	rel 10+8 t=1 "".Len32+0
	rel 18+8 t=1 "".Len32+19
	rel 28+4 t=29 gofile..$GOROOT/test/codegen/mathbits.go+0
	rel 38+4 t=28 go.info.uint32+0
	rel 50+4 t=28 go.info.int+0
go.range."".Len32 SDWARFRANGE size=0
go.isstmt."".Len32 SDWARFMISC size=0
	0x0000 04 04 01 0f 00                                   .....
go.loc."".Len16 SDWARFLOC size=0
go.info."".Len16 SDWARFINFO size=56
	0x0000 02 22 22 2e 4c 65 6e 31 36 00 00 00 00 00 00 00  ."".Len16.......
	0x0010 00 00 00 00 00 00 00 00 00 00 01 9c 00 00 00 00  ................
	0x0020 01 0e 6e 00 00 53 00 00 00 00 00 0e 7e 72 31 00  ..n..S......~r1.
	0x0030 01 53 00 00 00 00 00 00                          .S......
	rel 10+8 t=1 "".Len16+0
	rel 18+8 t=1 "".Len16+21
	rel 28+4 t=29 gofile..$GOROOT/test/codegen/mathbits.go+0
	rel 38+4 t=28 go.info.uint16+0
	rel 50+4 t=28 go.info.int+0
go.range."".Len16 SDWARFRANGE size=0
go.isstmt."".Len16 SDWARFMISC size=0
	0x0000 04 05 01 10 00                                   .....
go.loc."".Len8 SDWARFLOC size=0
go.info."".Len8 SDWARFINFO size=55
	0x0000 02 22 22 2e 4c 65 6e 38 00 00 00 00 00 00 00 00  ."".Len8........
	0x0010 00 00 00 00 00 00 00 00 00 01 9c 00 00 00 00 01  ................
	0x0020 0e 6e 00 00 5b 00 00 00 00 00 0e 7e 72 31 00 01  .n..[......~r1..
	0x0030 5b 00 00 00 00 00 00                             [......
	rel 9+8 t=1 "".Len8+0
	rel 17+8 t=1 "".Len8+21
	rel 27+4 t=29 gofile..$GOROOT/test/codegen/mathbits.go+0
	rel 37+4 t=28 go.info.uint8+0
	rel 49+4 t=28 go.info.int+0
go.range."".Len8 SDWARFRANGE size=0
go.isstmt."".Len8 SDWARFMISC size=0
	0x0000 04 05 01 10 00                                   .....
go.loc."".OnesCount SDWARFLOC size=51
	0x0000 ff ff ff ff ff ff ff ff 00 00 00 00 00 00 00 00  ................
	0x0010 24 00 00 00 00 00 00 00 5e 00 00 00 00 00 00 00  $.......^.......
	0x0020 01 00 9c 00 00 00 00 00 00 00 00 00 00 00 00 00  ................
	0x0030 00 00 00                                         ...
	rel 8+8 t=1 "".OnesCount+0
go.info."".OnesCount SDWARFINFO size=63
	0x0000 02 22 22 2e 4f 6e 65 73 43 6f 75 6e 74 00 00 00  ."".OnesCount...
	0x0010 00 00 00 00 00 00 00 00 00 00 00 00 00 00 01 9c  ................
	0x0020 00 00 00 00 01 0f 6e 00 00 67 00 00 00 00 00 00  ......n..g......
	0x0030 00 00 0e 7e 72 31 00 01 67 00 00 00 00 00 00     ...~r1..g......
	rel 14+8 t=1 "".OnesCount+0
	rel 22+8 t=1 "".OnesCount+94
	rel 32+4 t=29 gofile..$GOROOT/test/codegen/mathbits.go+0
	rel 42+4 t=28 go.info.uint+0
	rel 46+4 t=28 go.loc."".OnesCount+0
	rel 57+4 t=28 go.info.int+0
go.range."".OnesCount SDWARFRANGE size=0
go.isstmt."".OnesCount SDWARFMISC size=0
	0x0000 04 0f 04 0e 03 07 01 0f 02 05 01 1f 02 07 00     ...............
go.loc."".OnesCount64 SDWARFLOC size=51
	0x0000 ff ff ff ff ff ff ff ff 00 00 00 00 00 00 00 00  ................
	0x0010 24 00 00 00 00 00 00 00 5e 00 00 00 00 00 00 00  $.......^.......
	0x0020 01 00 9c 00 00 00 00 00 00 00 00 00 00 00 00 00  ................
	0x0030 00 00 00                                         ...
	rel 8+8 t=1 "".OnesCount64+0
go.info."".OnesCount64 SDWARFINFO size=65
	0x0000 02 22 22 2e 4f 6e 65 73 43 6f 75 6e 74 36 34 00  ."".OnesCount64.
	0x0010 00 00 00 00 00 00 00 00 00 00 00 00 00 00 00 00  ................
	0x0020 01 9c 00 00 00 00 01 0f 6e 00 00 6d 00 00 00 00  ........n..m....
	0x0030 00 00 00 00 0e 7e 72 31 00 01 6d 00 00 00 00 00  .....~r1..m.....
	0x0040 00                                               .
	rel 16+8 t=1 "".OnesCount64+0
	rel 24+8 t=1 "".OnesCount64+94
	rel 34+4 t=29 gofile..$GOROOT/test/codegen/mathbits.go+0
	rel 44+4 t=28 go.info.uint64+0
	rel 48+4 t=28 go.loc."".OnesCount64+0
	rel 59+4 t=28 go.info.int+0
go.range."".OnesCount64 SDWARFRANGE size=0
go.isstmt."".OnesCount64 SDWARFMISC size=0
	0x0000 04 0f 04 0e 03 07 01 0f 02 05 01 1f 02 07 00     ...............
go.loc."".OnesCount32 SDWARFLOC size=51
	0x0000 ff ff ff ff ff ff ff ff 00 00 00 00 00 00 00 00  ................
	0x0010 24 00 00 00 00 00 00 00 5a 00 00 00 00 00 00 00  $.......Z.......
	0x0020 01 00 9c 00 00 00 00 00 00 00 00 00 00 00 00 00  ................
	0x0030 00 00 00                                         ...
	rel 8+8 t=1 "".OnesCount32+0
go.info."".OnesCount32 SDWARFINFO size=65
	0x0000 02 22 22 2e 4f 6e 65 73 43 6f 75 6e 74 33 32 00  ."".OnesCount32.
	0x0010 00 00 00 00 00 00 00 00 00 00 00 00 00 00 00 00  ................
	0x0020 01 9c 00 00 00 00 01 0f 6e 00 00 73 00 00 00 00  ........n..s....
	0x0030 00 00 00 00 0e 7e 72 31 00 01 73 00 00 00 00 00  .....~r1..s.....
	0x0040 00                                               .
	rel 16+8 t=1 "".OnesCount32+0
	rel 24+8 t=1 "".OnesCount32+90
	rel 34+4 t=29 gofile..$GOROOT/test/codegen/mathbits.go+0
	rel 44+4 t=28 go.info.uint32+0
	rel 48+4 t=28 go.loc."".OnesCount32+0
	rel 59+4 t=28 go.info.int+0
go.range."".OnesCount32 SDWARFRANGE size=0
go.isstmt."".OnesCount32 SDWARFMISC size=0
	0x0000 04 0f 04 0e 03 07 01 0d 02 05 01 1d 02 07 00     ...............
go.loc."".OnesCount16 SDWARFLOC size=51
	0x0000 ff ff ff ff ff ff ff ff 00 00 00 00 00 00 00 00  ................
	0x0010 24 00 00 00 00 00 00 00 60 00 00 00 00 00 00 00  $.......`.......
	0x0020 01 00 9c 00 00 00 00 00 00 00 00 00 00 00 00 00  ................
	0x0030 00 00 00                                         ...
	rel 8+8 t=1 "".OnesCount16+0
go.info."".OnesCount16 SDWARFINFO size=65
	0x0000 02 22 22 2e 4f 6e 65 73 43 6f 75 6e 74 31 36 00  ."".OnesCount16.
	0x0010 00 00 00 00 00 00 00 00 00 00 00 00 00 00 00 00  ................
	0x0020 01 9c 00 00 00 00 01 0f 6e 00 00 79 00 00 00 00  ........n..y....
	0x0030 00 00 00 00 0e 7e 72 31 00 01 79 00 00 00 00 00  .....~r1..y.....
	0x0040 00                                               .
	rel 16+8 t=1 "".OnesCount16+0
	rel 24+8 t=1 "".OnesCount16+96
	rel 34+4 t=29 gofile..$GOROOT/test/codegen/mathbits.go+0
	rel 44+4 t=28 go.info.uint16+0
	rel 48+4 t=28 go.loc."".OnesCount16+0
	rel 59+4 t=28 go.info.int+0
go.range."".OnesCount16 SDWARFRANGE size=0
go.isstmt."".OnesCount16 SDWARFMISC size=0
	0x0000 04 0f 04 0e 03 07 01 11 02 05 01 1f 02 07 00     ...............
go.loc."".ReverseBytes SDWARFLOC size=51
	0x0000 ff ff ff ff ff ff ff ff 00 00 00 00 00 00 00 00  ................
	0x0010 05 00 00 00 00 00 00 00 0e 00 00 00 00 00 00 00  ................
	0x0020 01 00 9c 00 00 00 00 00 00 00 00 00 00 00 00 00  ................
	0x0030 00 00 00                                         ...
	rel 8+8 t=1 "".ReverseBytes+0
go.info."".ReverseBytes SDWARFINFO size=102
	0x0000 02 22 22 2e 52 65 76 65 72 73 65 42 79 74 65 73  ."".ReverseBytes
	0x0010 00 00 00 00 00 00 00 00 00 00 00 00 00 00 00 00  ................
	0x0020 00 01 9c 00 00 00 00 01 0e 6e 00 00 83 01 00 00  .........n......
	0x0030 00 00 00 0e 7e 72 31 00 01 83 01 00 00 00 00 00  ....~r1.........
	0x0040 05 00 00 00 00 00 00 00 00 00 00 00 00 00 00 00  ................
	0x0050 00 00 00 00 00 00 00 00 00 87 01 12 00 00 00 00  ................
	0x0060 00 00 00 00 00 00                                ......
	rel 17+8 t=1 "".ReverseBytes+0
	rel 25+8 t=1 "".ReverseBytes+14
	rel 35+4 t=29 gofile..$GOROOT/test/codegen/mathbits.go+0
	rel 46+4 t=28 go.info.uint+0
	rel 59+4 t=28 go.info.uint+0
	rel 65+4 t=28 go.info.math/bits.ReverseBytes$abstract+0
	rel 69+8 t=1 "".ReverseBytes+0
	rel 77+8 t=1 "".ReverseBytes+8
	rel 85+4 t=29 gofile..$GOROOT/test/codegen/mathbits.go+0
	rel 92+4 t=28 go.info.math/bits.ReverseBytes$abstract+26
	rel 96+4 t=28 go.loc."".ReverseBytes+0
go.range."".ReverseBytes SDWARFRANGE size=0
go.isstmt."".ReverseBytes SDWARFMISC size=0
	0x0000 04 05 01 03 02 05 01 01 00                       .........
go.loc."".ReverseBytes64 SDWARFLOC size=0
go.info."".ReverseBytes64 SDWARFINFO size=67
	0x0000 02 22 22 2e 52 65 76 65 72 73 65 42 79 74 65 73  ."".ReverseBytes
	0x0010 36 34 00 00 00 00 00 00 00 00 00 00 00 00 00 00  64..............
	0x0020 00 00 00 01 9c 00 00 00 00 01 0e 6e 00 00 8a 01  ...........n....
	0x0030 00 00 00 00 00 0e 7e 72 31 00 01 8a 01 00 00 00  ......~r1.......
	0x0040 00 00 00                                         ...
	rel 19+8 t=1 "".ReverseBytes64+0
	rel 27+8 t=1 "".ReverseBytes64+14
	rel 37+4 t=29 gofile..$GOROOT/test/codegen/mathbits.go+0
	rel 48+4 t=28 go.info.uint64+0
	rel 61+4 t=28 go.info.uint64+0
go.range."".ReverseBytes64 SDWARFRANGE size=0
go.isstmt."".ReverseBytes64 SDWARFMISC size=0
	0x0000 04 05 01 09 00                                   .....
go.loc."".ReverseBytes32 SDWARFLOC size=0
go.info."".ReverseBytes32 SDWARFINFO size=67
	0x0000 02 22 22 2e 52 65 76 65 72 73 65 42 79 74 65 73  ."".ReverseBytes
	0x0010 33 32 00 00 00 00 00 00 00 00 00 00 00 00 00 00  32..............
	0x0020 00 00 00 01 9c 00 00 00 00 01 0e 6e 00 00 91 01  ...........n....
	0x0030 00 00 00 00 00 0e 7e 72 31 00 01 91 01 00 00 00  ......~r1.......
	0x0040 00 00 00                                         ...
	rel 19+8 t=1 "".ReverseBytes32+0
	rel 27+8 t=1 "".ReverseBytes32+11
	rel 37+4 t=29 gofile..$GOROOT/test/codegen/mathbits.go+0
	rel 48+4 t=28 go.info.uint32+0
	rel 61+4 t=28 go.info.uint32+0
go.range."".ReverseBytes32 SDWARFRANGE size=0
go.isstmt."".ReverseBytes32 SDWARFMISC size=0
	0x0000 04 04 01 07 00                                   .....
go.loc."".ReverseBytes16 SDWARFLOC size=51
	0x0000 ff ff ff ff ff ff ff ff 00 00 00 00 00 00 00 00  ................
	0x0010 05 00 00 00 00 00 00 00 0f 00 00 00 00 00 00 00  ................
	0x0020 01 00 9c 00 00 00 00 00 00 00 00 00 00 00 00 00  ................
	0x0030 00 00 00                                         ...
	rel 8+8 t=1 "".ReverseBytes16+0
go.info."".ReverseBytes16 SDWARFINFO size=104
	0x0000 02 22 22 2e 52 65 76 65 72 73 65 42 79 74 65 73  ."".ReverseBytes
	0x0010 31 36 00 00 00 00 00 00 00 00 00 00 00 00 00 00  16..............
	0x0020 00 00 00 01 9c 00 00 00 00 01 0e 6e 00 00 98 01  ...........n....
	0x0030 00 00 00 00 00 0e 7e 72 31 00 01 98 01 00 00 00  ......~r1.......
	0x0040 00 00 05 00 00 00 00 00 00 00 00 00 00 00 00 00  ................
	0x0050 00 00 00 00 00 00 00 00 00 00 00 9a 01 12 00 00  ................
	0x0060 00 00 00 00 00 00 00 00                          ........
	rel 19+8 t=1 "".ReverseBytes16+0
	rel 27+8 t=1 "".ReverseBytes16+15
	rel 37+4 t=29 gofile..$GOROOT/test/codegen/mathbits.go+0
	rel 48+4 t=28 go.info.uint16+0
	rel 61+4 t=28 go.info.uint16+0
	rel 67+4 t=28 go.info.math/bits.ReverseBytes16$abstract+0
	rel 71+8 t=1 "".ReverseBytes16+0
	rel 79+8 t=1 "".ReverseBytes16+9
	rel 87+4 t=29 gofile..$GOROOT/test/codegen/mathbits.go+0
	rel 94+4 t=28 go.info.math/bits.ReverseBytes16$abstract+28
	rel 98+4 t=28 go.loc."".ReverseBytes16+0
go.range."".ReverseBytes16 SDWARFRANGE size=0
go.isstmt."".ReverseBytes16 SDWARFMISC size=0
	0x0000 04 05 01 04 02 05 01 01 00                       .........
go.loc."".RotateLeft64 SDWARFLOC size=51
	0x0000 ff ff ff ff ff ff ff ff 00 00 00 00 00 00 00 00  ................
	0x0010 05 00 00 00 00 00 00 00 0f 00 00 00 00 00 00 00  ................
	0x0020 01 00 9c 00 00 00 00 00 00 00 00 00 00 00 00 00  ................
	0x0030 00 00 00                                         ...
	rel 8+8 t=1 "".RotateLeft64+0
go.info."".RotateLeft64 SDWARFINFO size=102
	0x0000 02 22 22 2e 52 6f 74 61 74 65 4c 65 66 74 36 34  ."".RotateLeft64
	0x0010 00 00 00 00 00 00 00 00 00 00 00 00 00 00 00 00  ................
	0x0020 00 01 9c 00 00 00 00 01 0e 6e 00 00 a1 01 00 00  .........n......
	0x0030 00 00 00 0e 7e 72 31 00 01 a1 01 00 00 00 00 00  ....~r1.........
	0x0040 05 00 00 00 00 00 00 00 00 00 00 00 00 00 00 00  ................
	0x0050 00 00 00 00 00 00 00 00 00 a5 01 12 00 00 00 00  ................
	0x0060 00 00 00 00 00 00                                ......
	rel 17+8 t=1 "".RotateLeft64+0
	rel 25+8 t=1 "".RotateLeft64+15
	rel 35+4 t=29 gofile..$GOROOT/test/codegen/mathbits.go+0
	rel 46+4 t=28 go.info.uint64+0
	rel 59+4 t=28 go.info.uint64+0
	rel 65+4 t=28 go.info.math/bits.RotateLeft64$abstract+0
	rel 69+8 t=1 "".RotateLeft64+0
	rel 77+8 t=1 "".RotateLeft64+9
	rel 85+4 t=29 gofile..$GOROOT/test/codegen/mathbits.go+0
	rel 92+4 t=28 go.info.math/bits.RotateLeft64$abstract+43
	rel 96+4 t=28 go.loc."".RotateLeft64+0
go.range."".RotateLeft64 SDWARFRANGE size=0
go.isstmt."".RotateLeft64 SDWARFMISC size=0
	0x0000 04 05 01 04 02 05 01 01 00                       .........
go.loc."".RotateLeft32 SDWARFLOC size=51
	0x0000 ff ff ff ff ff ff ff ff 00 00 00 00 00 00 00 00  ................
	0x0010 04 00 00 00 00 00 00 00 0c 00 00 00 00 00 00 00  ................
	0x0020 01 00 9c 00 00 00 00 00 00 00 00 00 00 00 00 00  ................
	0x0030 00 00 00                                         ...
	rel 8+8 t=1 "".RotateLeft32+0
go.info."".RotateLeft32 SDWARFINFO size=102
	0x0000 02 22 22 2e 52 6f 74 61 74 65 4c 65 66 74 33 32  ."".RotateLeft32
	0x0010 00 00 00 00 00 00 00 00 00 00 00 00 00 00 00 00  ................
	0x0020 00 01 9c 00 00 00 00 01 0e 6e 00 00 a8 01 00 00  .........n......
	0x0030 00 00 00 0e 7e 72 31 00 01 a8 01 00 00 00 00 00  ....~r1.........
	0x0040 05 00 00 00 00 00 00 00 00 00 00 00 00 00 00 00  ................
	0x0050 00 00 00 00 00 00 00 00 00 ac 01 12 00 00 00 00  ................
	0x0060 00 00 00 00 00 00                                ......
	rel 17+8 t=1 "".RotateLeft32+0
	rel 25+8 t=1 "".RotateLeft32+12
	rel 35+4 t=29 gofile..$GOROOT/test/codegen/mathbits.go+0
	rel 46+4 t=28 go.info.uint32+0
	rel 59+4 t=28 go.info.uint32+0
	rel 65+4 t=28 go.info.math/bits.RotateLeft32$abstract+0
	rel 69+8 t=1 "".RotateLeft32+0
	rel 77+8 t=1 "".RotateLeft32+7
	rel 85+4 t=29 gofile..$GOROOT/test/codegen/mathbits.go+0
	rel 92+4 t=28 go.info.math/bits.RotateLeft32$abstract+43
	rel 96+4 t=28 go.loc."".RotateLeft32+0
go.range."".RotateLeft32 SDWARFRANGE size=0
go.isstmt."".RotateLeft32 SDWARFMISC size=0
	0x0000 04 04 01 03 02 04 01 01 00                       .........
go.loc."".RotateLeft16 SDWARFLOC size=51
	0x0000 ff ff ff ff ff ff ff ff 00 00 00 00 00 00 00 00  ................
	0x0010 05 00 00 00 00 00 00 00 0f 00 00 00 00 00 00 00  ................
	0x0020 01 00 9c 00 00 00 00 00 00 00 00 00 00 00 00 00  ................
	0x0030 00 00 00                                         ...
	rel 8+8 t=1 "".RotateLeft16+0
go.info."".RotateLeft16 SDWARFINFO size=102
	0x0000 02 22 22 2e 52 6f 74 61 74 65 4c 65 66 74 31 36  ."".RotateLeft16
	0x0010 00 00 00 00 00 00 00 00 00 00 00 00 00 00 00 00  ................
	0x0020 00 01 9c 00 00 00 00 01 0e 6e 00 00 af 01 00 00  .........n......
	0x0030 00 00 00 0e 7e 72 31 00 01 af 01 00 00 00 00 00  ....~r1.........
	0x0040 05 00 00 00 00 00 00 00 00 00 00 00 00 00 00 00  ................
	0x0050 00 00 00 00 00 00 00 00 00 b1 01 12 00 00 00 00  ................
	0x0060 00 00 00 00 00 00                                ......
	rel 17+8 t=1 "".RotateLeft16+0
	rel 25+8 t=1 "".RotateLeft16+15
	rel 35+4 t=29 gofile..$GOROOT/test/codegen/mathbits.go+0
	rel 46+4 t=28 go.info.uint16+0
	rel 59+4 t=28 go.info.uint16+0
	rel 65+4 t=28 go.info.math/bits.RotateLeft16$abstract+0
	rel 69+8 t=1 "".RotateLeft16+0
	rel 77+8 t=1 "".RotateLeft16+9
	rel 85+4 t=29 gofile..$GOROOT/test/codegen/mathbits.go+0
	rel 92+4 t=28 go.info.math/bits.RotateLeft16$abstract+43
	rel 96+4 t=28 go.loc."".RotateLeft16+0
go.range."".RotateLeft16 SDWARFRANGE size=0
go.isstmt."".RotateLeft16 SDWARFMISC size=0
	0x0000 04 05 01 04 02 05 01 01 00                       .........
go.loc."".RotateLeft8 SDWARFLOC size=51
	0x0000 ff ff ff ff ff ff ff ff 00 00 00 00 00 00 00 00  ................
	0x0010 05 00 00 00 00 00 00 00 0d 00 00 00 00 00 00 00  ................
	0x0020 01 00 9c 00 00 00 00 00 00 00 00 00 00 00 00 00  ................
	0x0030 00 00 00                                         ...
	rel 8+8 t=1 "".RotateLeft8+0
go.info."".RotateLeft8 SDWARFINFO size=101
	0x0000 02 22 22 2e 52 6f 74 61 74 65 4c 65 66 74 38 00  ."".RotateLeft8.
	0x0010 00 00 00 00 00 00 00 00 00 00 00 00 00 00 00 00  ................
	0x0020 01 9c 00 00 00 00 01 0e 6e 00 00 b4 01 00 00 00  ........n.......
	0x0030 00 00 0e 7e 72 31 00 01 b4 01 00 00 00 00 00 05  ...~r1..........
	0x0040 00 00 00 00 00 00 00 00 00 00 00 00 00 00 00 00  ................
	0x0050 00 00 00 00 00 00 00 00 b6 01 12 00 00 00 00 00  ................
	0x0060 00 00 00 00 00                                   .....
	rel 16+8 t=1 "".RotateLeft8+0
	rel 24+8 t=1 "".RotateLeft8+13
	rel 34+4 t=29 gofile..$GOROOT/test/codegen/mathbits.go+0
	rel 45+4 t=28 go.info.uint8+0
	rel 58+4 t=28 go.info.uint8+0
	rel 64+4 t=28 go.info.math/bits.RotateLeft8$abstract+0
	rel 68+8 t=1 "".RotateLeft8+0
	rel 76+8 t=1 "".RotateLeft8+8
	rel 84+4 t=29 gofile..$GOROOT/test/codegen/mathbits.go+0
	rel 91+4 t=28 go.info.math/bits.RotateLeft8$abstract+42
	rel 95+4 t=28 go.loc."".RotateLeft8+0
go.range."".RotateLeft8 SDWARFRANGE size=0
go.isstmt."".RotateLeft8 SDWARFMISC size=0
	0x0000 04 05 01 03 02 04 01 01 00                       .........
go.loc."".TrailingZeros SDWARFLOC size=51
	0x0000 ff ff ff ff ff ff ff ff 00 00 00 00 00 00 00 00  ................
	0x0010 05 00 00 00 00 00 00 00 18 00 00 00 00 00 00 00  ................
	0x0020 01 00 9c 00 00 00 00 00 00 00 00 00 00 00 00 00  ................
	0x0030 00 00 00                                         ...
	rel 8+8 t=1 "".TrailingZeros+0
go.info."".TrailingZeros SDWARFINFO size=103
	0x0000 02 22 22 2e 54 72 61 69 6c 69 6e 67 5a 65 72 6f  ."".TrailingZero
	0x0010 73 00 00 00 00 00 00 00 00 00 00 00 00 00 00 00  s...............
	0x0020 00 00 01 9c 00 00 00 00 01 0e 6e 00 00 bd 01 00  ..........n.....
	0x0030 00 00 00 00 0e 7e 72 31 00 01 bd 01 00 00 00 00  .....~r1........
	0x0040 00 05 00 00 00 00 00 00 00 00 00 00 00 00 00 00  ................
	0x0050 00 00 00 00 00 00 00 00 00 00 c0 01 12 00 00 00  ................
	0x0060 00 00 00 00 00 00 00                             .......
	rel 18+8 t=1 "".TrailingZeros+0
	rel 26+8 t=1 "".TrailingZeros+24
	rel 36+4 t=29 gofile..$GOROOT/test/codegen/mathbits.go+0
	rel 47+4 t=28 go.info.uint+0
	rel 60+4 t=28 go.info.int+0
	rel 66+4 t=28 go.info.math/bits.TrailingZeros$abstract+0
	rel 70+8 t=1 "".TrailingZeros+0
	rel 78+8 t=1 "".TrailingZeros+18
	rel 86+4 t=29 gofile..$GOROOT/test/codegen/mathbits.go+0
	rel 93+4 t=28 go.info.math/bits.TrailingZeros$abstract+27
	rel 97+4 t=28 go.loc."".TrailingZeros+0
go.range."".TrailingZeros SDWARFRANGE size=0
go.isstmt."".TrailingZeros SDWARFMISC size=0
	0x0000 04 05 01 0d 02 05 01 01 00                       .........
go.loc."".TrailingZeros64 SDWARFLOC size=0
go.info."".TrailingZeros64 SDWARFINFO size=68
	0x0000 02 22 22 2e 54 72 61 69 6c 69 6e 67 5a 65 72 6f  ."".TrailingZero
	0x0010 73 36 34 00 00 00 00 00 00 00 00 00 00 00 00 00  s64.............
	0x0020 00 00 00 00 01 9c 00 00 00 00 01 0e 6e 00 00 c3  ............n...
	0x0030 01 00 00 00 00 00 0e 7e 72 31 00 01 c3 01 00 00  .......~r1......
	0x0040 00 00 00 00                                      ....
	rel 20+8 t=1 "".TrailingZeros64+0
	rel 28+8 t=1 "".TrailingZeros64+24
	rel 38+4 t=29 gofile..$GOROOT/test/codegen/mathbits.go+0
	rel 49+4 t=28 go.info.uint64+0
	rel 62+4 t=28 go.info.int+0
go.range."".TrailingZeros64 SDWARFRANGE size=0
go.isstmt."".TrailingZeros64 SDWARFMISC size=0
	0x0000 04 05 01 13 00                                   .....
go.loc."".TrailingZeros32 SDWARFLOC size=0
go.info."".TrailingZeros32 SDWARFINFO size=68
	0x0000 02 22 22 2e 54 72 61 69 6c 69 6e 67 5a 65 72 6f  ."".TrailingZero
	0x0010 73 33 32 00 00 00 00 00 00 00 00 00 00 00 00 00  s32.............
	0x0020 00 00 00 00 01 9c 00 00 00 00 01 0e 6e 00 00 c9  ............n...
	0x0030 01 00 00 00 00 00 0e 7e 72 31 00 01 c9 01 00 00  .......~r1......
	0x0040 00 00 00 00                                      ....
	rel 20+8 t=1 "".TrailingZeros32+0
	rel 28+8 t=1 "".TrailingZeros32+19
	rel 38+4 t=29 gofile..$GOROOT/test/codegen/mathbits.go+0
	rel 49+4 t=28 go.info.uint32+0
	rel 62+4 t=28 go.info.int+0
go.range."".TrailingZeros32 SDWARFRANGE size=0
go.isstmt."".TrailingZeros32 SDWARFMISC size=0
	0x0000 04 04 01 0f 00                                   .....
go.loc."".TrailingZeros16 SDWARFLOC size=0
go.info."".TrailingZeros16 SDWARFINFO size=68
	0x0000 02 22 22 2e 54 72 61 69 6c 69 6e 67 5a 65 72 6f  ."".TrailingZero
	0x0010 73 31 36 00 00 00 00 00 00 00 00 00 00 00 00 00  s16.............
	0x0020 00 00 00 00 01 9c 00 00 00 00 01 0e 6e 00 00 cf  ............n...
	0x0030 01 00 00 00 00 00 0e 7e 72 31 00 01 cf 01 00 00  .......~r1......
	0x0040 00 00 00 00                                      ....
	rel 20+8 t=1 "".TrailingZeros16+0
	rel 28+8 t=1 "".TrailingZeros16+18
	rel 38+4 t=29 gofile..$GOROOT/test/codegen/mathbits.go+0
	rel 49+4 t=28 go.info.uint16+0
	rel 62+4 t=28 go.info.int+0
go.range."".TrailingZeros16 SDWARFRANGE size=0
go.isstmt."".TrailingZeros16 SDWARFMISC size=0
	0x0000 04 05 01 0d 00                                   .....
go.loc."".TrailingZeros8 SDWARFLOC size=0
go.info."".TrailingZeros8 SDWARFINFO size=67
	0x0000 02 22 22 2e 54 72 61 69 6c 69 6e 67 5a 65 72 6f  ."".TrailingZero
	0x0010 73 38 00 00 00 00 00 00 00 00 00 00 00 00 00 00  s8..............
	0x0020 00 00 00 01 9c 00 00 00 00 01 0e 6e 00 00 d5 01  ...........n....
	0x0030 00 00 00 00 00 0e 7e 72 31 00 01 d5 01 00 00 00  ......~r1.......
	0x0040 00 00 00                                         ...
	rel 19+8 t=1 "".TrailingZeros8+0
	rel 27+8 t=1 "".TrailingZeros8+18
	rel 37+4 t=29 gofile..$GOROOT/test/codegen/mathbits.go+0
	rel 48+4 t=28 go.info.uint8+0
	rel 61+4 t=28 go.info.int+0
go.range."".TrailingZeros8 SDWARFRANGE size=0
go.isstmt."".TrailingZeros8 SDWARFMISC size=0
	0x0000 04 05 01 0d 00                                   .....
go.loc."".IterateBits SDWARFLOC size=172
	0x0000 ff ff ff ff ff ff ff ff 00 00 00 00 00 00 00 00  ................
	0x0010 10 00 00 00 00 00 00 00 22 00 00 00 00 00 00 00  ........".......
	0x0020 01 00 52 00 00 00 00 00 00 00 00 00 00 00 00 00  ..R.............
	0x0030 00 00 00 ff ff ff ff ff ff ff ff 00 00 00 00 00  ................
	0x0040 00 00 00 10 00 00 00 00 00 00 00 22 00 00 00 00  ..........."....
	0x0050 00 00 00 01 00 50 00 00 00 00 00 00 00 00 00 00  .....P..........
	0x0060 00 00 00 00 00 00 ff ff ff ff ff ff ff ff 00 00  ................
	0x0070 00 00 00 00 00 00 10 00 00 00 00 00 00 00 17 00  ................
	0x0080 00 00 00 00 00 00 01 00 50 1a 00 00 00 00 00 00  ........P.......
	0x0090 00 22 00 00 00 00 00 00 00 01 00 50 00 00 00 00  .".........P....
	0x00a0 00 00 00 00 00 00 00 00 00 00 00 00              ............
	rel 8+8 t=1 "".IterateBits+0
	rel 59+8 t=1 "".IterateBits+0
	rel 110+8 t=1 "".IterateBits+0
go.info."".IterateBits SDWARFINFO size=117
	0x0000 02 22 22 2e 49 74 65 72 61 74 65 42 69 74 73 00  ."".IterateBits.
	0x0010 00 00 00 00 00 00 00 00 00 00 00 00 00 00 00 00  ................
	0x0020 01 9c 00 00 00 00 01 0a 69 00 de 01 00 00 00 00  ........i.......
	0x0030 00 00 00 00 0f 6e 00 00 dd 01 00 00 00 00 00 00  .....n..........
	0x0040 00 00 0e 7e 72 31 00 01 dd 01 00 00 00 00 00 05  ...~r1..........
	0x0050 00 00 00 00 00 00 00 00 00 00 00 00 00 00 00 00  ................
	0x0060 00 00 00 00 00 00 00 00 e1 01 12 00 00 00 00 00  ................
	0x0070 00 00 00 00 00                                   .....
	rel 16+8 t=1 "".IterateBits+0
	rel 24+8 t=1 "".IterateBits+34
	rel 34+4 t=29 gofile..$GOROOT/test/codegen/mathbits.go+0
	rel 44+4 t=28 go.info.int+0
	rel 48+4 t=28 go.loc."".IterateBits+0
	rel 58+4 t=28 go.info.uint+0
	rel 62+4 t=28 go.loc."".IterateBits+51
	rel 74+4 t=28 go.info.int+0
	rel 80+4 t=28 go.info.math/bits.TrailingZeros$abstract+0
	rel 84+8 t=1 "".IterateBits+9
	rel 92+8 t=1 "".IterateBits+13
	rel 100+4 t=29 gofile..$GOROOT/test/codegen/mathbits.go+0
	rel 107+4 t=28 go.info.math/bits.TrailingZeros$abstract+27
	rel 111+4 t=28 go.loc."".IterateBits+102
go.range."".IterateBits SDWARFRANGE size=0
go.isstmt."".IterateBits SDWARFMISC size=0
	0x0000 04 05 01 04 02 0b 01 03 02 03 01 02 02 05 01 01  ................
	0x0010 00                                               .
go.loc."".IterateBits64 SDWARFLOC size=102
	0x0000 ff ff ff ff ff ff ff ff 00 00 00 00 00 00 00 00  ................
	0x0010 10 00 00 00 00 00 00 00 22 00 00 00 00 00 00 00  ........".......
	0x0020 01 00 52 00 00 00 00 00 00 00 00 00 00 00 00 00  ..R.............
	0x0030 00 00 00 ff ff ff ff ff ff ff ff 00 00 00 00 00  ................
	0x0040 00 00 00 10 00 00 00 00 00 00 00 22 00 00 00 00  ..........."....
	0x0050 00 00 00 01 00 50 00 00 00 00 00 00 00 00 00 00  .....P..........
	0x0060 00 00 00 00 00 00                                ......
	rel 8+8 t=1 "".IterateBits64+0
	rel 59+8 t=1 "".IterateBits64+0
go.info."".IterateBits64 SDWARFINFO size=82
	0x0000 02 22 22 2e 49 74 65 72 61 74 65 42 69 74 73 36  ."".IterateBits6
	0x0010 34 00 00 00 00 00 00 00 00 00 00 00 00 00 00 00  4...............
	0x0020 00 00 01 9c 00 00 00 00 01 0a 69 00 e8 01 00 00  ..........i.....
	0x0030 00 00 00 00 00 00 0f 6e 00 00 e7 01 00 00 00 00  .......n........
	0x0040 00 00 00 00 0e 7e 72 31 00 01 e7 01 00 00 00 00  .....~r1........
	0x0050 00 00                                            ..
	rel 18+8 t=1 "".IterateBits64+0
	rel 26+8 t=1 "".IterateBits64+34
	rel 36+4 t=29 gofile..$GOROOT/test/codegen/mathbits.go+0
	rel 46+4 t=28 go.info.int+0
	rel 50+4 t=28 go.loc."".IterateBits64+0
	rel 60+4 t=28 go.info.uint64+0
	rel 64+4 t=28 go.loc."".IterateBits64+51
	rel 76+4 t=28 go.info.int+0
go.range."".IterateBits64 SDWARFRANGE size=0
go.isstmt."".IterateBits64 SDWARFMISC size=0
	0x0000 04 05 01 04 02 04 01 03 02 04 01 03 02 03 01 02  ................
	0x0010 02 05 01 01 00                                   .....
go.loc."".IterateBits32 SDWARFLOC size=102
	0x0000 ff ff ff ff ff ff ff ff 00 00 00 00 00 00 00 00  ................
	0x0010 0e 00 00 00 00 00 00 00 1d 00 00 00 00 00 00 00  ................
	0x0020 01 00 52 00 00 00 00 00 00 00 00 00 00 00 00 00  ..R.............
	0x0030 00 00 00 ff ff ff ff ff ff ff ff 00 00 00 00 00  ................
	0x0040 00 00 00 0e 00 00 00 00 00 00 00 1d 00 00 00 00  ................
	0x0050 00 00 00 01 00 50 00 00 00 00 00 00 00 00 00 00  .....P..........
	0x0060 00 00 00 00 00 00                                ......
	rel 8+8 t=1 "".IterateBits32+0
	rel 59+8 t=1 "".IterateBits32+0
go.info."".IterateBits32 SDWARFINFO size=82
	0x0000 02 22 22 2e 49 74 65 72 61 74 65 42 69 74 73 33  ."".IterateBits3
	0x0010 32 00 00 00 00 00 00 00 00 00 00 00 00 00 00 00  2...............
	0x0020 00 00 01 9c 00 00 00 00 01 0a 69 00 f2 01 00 00  ..........i.....
	0x0030 00 00 00 00 00 00 0f 6e 00 00 f1 01 00 00 00 00  .......n........
	0x0040 00 00 00 00 0e 7e 72 31 00 01 f1 01 00 00 00 00  .....~r1........
	0x0050 00 00                                            ..
	rel 18+8 t=1 "".IterateBits32+0
	rel 26+8 t=1 "".IterateBits32+29
	rel 36+4 t=29 gofile..$GOROOT/test/codegen/mathbits.go+0
	rel 46+4 t=28 go.info.int+0
	rel 50+4 t=28 go.loc."".IterateBits32+0
	rel 60+4 t=28 go.info.uint32+0
	rel 64+4 t=28 go.loc."".IterateBits32+51
	rel 76+4 t=28 go.info.int+0
go.range."".IterateBits32 SDWARFRANGE size=0
go.isstmt."".IterateBits32 SDWARFMISC size=0
	0x0000 04 04 01 04 02 03 01 03 02 03 01 02 02 02 01 02  ................
	0x0010 02 05 01 01 00                                   .....
go.loc."".IterateBits16 SDWARFLOC size=102
	0x0000 ff ff ff ff ff ff ff ff 00 00 00 00 00 00 00 00  ................
	0x0010 0f 00 00 00 00 00 00 00 1f 00 00 00 00 00 00 00  ................
	0x0020 01 00 52 00 00 00 00 00 00 00 00 00 00 00 00 00  ..R.............
	0x0030 00 00 00 ff ff ff ff ff ff ff ff 00 00 00 00 00  ................
	0x0040 00 00 00 0f 00 00 00 00 00 00 00 1f 00 00 00 00  ................
	0x0050 00 00 00 01 00 50 00 00 00 00 00 00 00 00 00 00  .....P..........
	0x0060 00 00 00 00 00 00                                ......
	rel 8+8 t=1 "".IterateBits16+0
	rel 59+8 t=1 "".IterateBits16+0
go.info."".IterateBits16 SDWARFINFO size=82
	0x0000 02 22 22 2e 49 74 65 72 61 74 65 42 69 74 73 31  ."".IterateBits1
	0x0010 36 00 00 00 00 00 00 00 00 00 00 00 00 00 00 00  6...............
	0x0020 00 00 01 9c 00 00 00 00 01 0a 69 00 fc 01 00 00  ..........i.....
	0x0030 00 00 00 00 00 00 0f 6e 00 00 fb 01 00 00 00 00  .......n........
	0x0040 00 00 00 00 0e 7e 72 31 00 01 fb 01 00 00 00 00  .....~r1........
	0x0050 00 00                                            ..
	rel 18+8 t=1 "".IterateBits16+0
	rel 26+8 t=1 "".IterateBits16+31
	rel 36+4 t=29 gofile..$GOROOT/test/codegen/mathbits.go+0
	rel 46+4 t=28 go.info.int+0
	rel 50+4 t=28 go.loc."".IterateBits16+0
	rel 60+4 t=28 go.info.uint16+0
	rel 64+4 t=28 go.loc."".IterateBits16+51
	rel 76+4 t=28 go.info.int+0
go.range."".IterateBits16 SDWARFRANGE size=0
go.isstmt."".IterateBits16 SDWARFMISC size=0
	0x0000 04 05 01 04 02 03 01 03 02 03 01 02 02 03 01 02  ................
	0x0010 02 05 01 01 00                                   .....
go.loc."".IterateBits8 SDWARFLOC size=102
	0x0000 ff ff ff ff ff ff ff ff 00 00 00 00 00 00 00 00  ................
	0x0010 0f 00 00 00 00 00 00 00 1e 00 00 00 00 00 00 00  ................
	0x0020 01 00 52 00 00 00 00 00 00 00 00 00 00 00 00 00  ..R.............
	0x0030 00 00 00 ff ff ff ff ff ff ff ff 00 00 00 00 00  ................
	0x0040 00 00 00 0f 00 00 00 00 00 00 00 1e 00 00 00 00  ................
	0x0050 00 00 00 01 00 50 00 00 00 00 00 00 00 00 00 00  .....P..........
	0x0060 00 00 00 00 00 00                                ......
	rel 8+8 t=1 "".IterateBits8+0
	rel 59+8 t=1 "".IterateBits8+0
go.info."".IterateBits8 SDWARFINFO size=81
	0x0000 02 22 22 2e 49 74 65 72 61 74 65 42 69 74 73 38  ."".IterateBits8
	0x0010 00 00 00 00 00 00 00 00 00 00 00 00 00 00 00 00  ................
	0x0020 00 01 9c 00 00 00 00 01 0a 69 00 86 02 00 00 00  .........i......
	0x0030 00 00 00 00 00 0f 6e 00 00 85 02 00 00 00 00 00  ......n.........
	0x0040 00 00 00 0e 7e 72 31 00 01 85 02 00 00 00 00 00  ....~r1.........
	0x0050 00                                               .
	rel 17+8 t=1 "".IterateBits8+0
	rel 25+8 t=1 "".IterateBits8+30
	rel 35+4 t=29 gofile..$GOROOT/test/codegen/mathbits.go+0
	rel 45+4 t=28 go.info.int+0
	rel 49+4 t=28 go.loc."".IterateBits8+0
	rel 59+4 t=28 go.info.uint8+0
	rel 63+4 t=28 go.loc."".IterateBits8+51
	rel 75+4 t=28 go.info.int+0
go.range."".IterateBits8 SDWARFRANGE size=0
go.isstmt."".IterateBits8 SDWARFMISC size=0
	0x0000 04 05 01 04 02 03 01 03 02 03 01 02 02 02 01 02  ................
	0x0010 02 05 01 01 00                                   .....
type..importpath.math/bits. SRODATA dupok size=12
	0x0000 00 00 09 6d 61 74 68 2f 62 69 74 73              ...math/bits
gclocals·33cdeccccebe80329f1fdbee7f5874cb SRODATA dupok size=8
	0x0000 01 00 00 00 00 00 00 00                          ........
gclocals·9fb7f0986f647f17cb53dda1484e0f7a SRODATA dupok size=10
	0x0000 02 00 00 00 01 00 00 00 00 01                    ..........
